

Microchip Technology PIC18 LITE Macro Assembler V2.00 build -1524193055 
                                                                                               Fri Jun  7 13:09:12 2019

Microchip Technology Omniscient Code Generator v2.00 (Free mode) build 20180527130849
     1  0000                     
     2                           ; Version 2.00
     3                           ; Generated 27/05/2018 GMT
     4                           
     5                           ; 
     6                           ; Copyright © 2018, Microchip Technology Inc. and its subsidiaries ("Microchip")
     7                           ; All rights reserved.
     8                           ; 
     9                           ; This software is developed by Microchip Technology Inc. and its subsidiaries ("Microch
                                 ip").
    10                           ; 
    11                           ; Redistribution and use in source and binary forms, with or without modification, are
    12                           ; permitted provided that the following conditions are met:
    13                           ; 
    14                           ;     1. Redistributions of source code must retain the above copyright notice, this lis
                                 t of
    15                           ;        conditions and the following disclaimer.
    16                           ; 
    17                           ;     2. Redistributions in binary form must reproduce the above copyright notice, this 
                                 list
    18                           ;        of conditions and the following disclaimer in the documentation and/or other
    19                           ;        materials provided with the distribution.
    20                           ; 
    21                           ;     3. Microchip's name may not be used to endorse or promote products derived from th
                                 is
    22                           ;        software without specific prior written permission.
    23                           ; 
    24                           ; THIS SOFTWARE IS PROVIDED BY MICROCHIP "AS IS" AND ANY EXPRESS OR IMPLIED WARRANTIES,

    25                           ; INCLUDING, BUT NOT LIMITED TO, THE IMPLIED WARRANTIES OF MERCHANTABILITY AND FITNESS F
                                 OR
    26                           ; PURPOSE ARE DISCLAIMED.  IN NO EVENT SHALL MICROCHIP BE LIABLE FOR ANY DIRECT, INDIREC
                                 T,
    27                           ; INCIDENTAL, SPECIAL, EXEMPLARY, OR CONSEQUENTIAL DAMAGES (INCLUDING BUT NOT LIMITED TO
                                 
    28                           ; PROCUREMENT OF SUBSTITUTE GOODS OR SERVICES; LOSS OF USE, DATA OR PROFITS; OR BUSINESS
                                 
    29                           ; INTERRUPTION) HOWSOEVER CAUSED AND ON ANY THEORY OF LIABILITY, WHETHER IN CONTRACT, ST
                                 RICT
    30                           ; LIABILITY, OR TORT (INCLUDING NEGLIGENCE OR OTHERWISE) ARISING IN ANY WAY OUT OF THE U
                                 SE OF
    31                           ; THIS SOFTWARE, EVEN IF ADVISED OF THE POSSIBILITY OF SUCH DAMAGE.
    32                           ; 
    33                           
    34                           
    35                           ; 
    36                           ; Code-generator required, PIC18F26K22 Definitions
    37                           ; 
    38  0000                     fsr0 equ 0FE9h
    39  0000                     fsr0h equ 0FEAh
    40  0000                     fsr0l equ 0FE9h
    41  0000                     fsr1 equ 0FE1h
    42  0000                     fsr1h equ 0FE2h
    43  0000                     fsr1l equ 0FE1h
    44  0000                     fsr2 equ 0FD9h
    45  0000                     fsr2h equ 0FDAh
    46  0000                     fsr2l equ 0FD9h
    47  0000                     indf0 equ 0FEFh
    48  0000                     indf1 equ 0FE7h
    49  0000                     indf2 equ 0FDFh
    50  0000                     intcon equ 0FF2h
    51  0000                     nvmcon equ 00h
    52  0000                     pcl equ 0FF9h
    53  0000                     pclath equ 0FFAh
    54  0000                     pclatu equ 0FFBh
    55  0000                     plusw0 equ 0FEBh
    56  0000                     plusw1 equ 0FE3h
    57  0000                     plusw2 equ 0FDBh
    58  0000                     postdec0 equ 0FEDh
    59  0000                     postdec1 equ 0FE5h
    60  0000                     postdec2 equ 0FDDh
    61  0000                     postinc0 equ 0FEEh
    62  0000                     postinc1 equ 0FE6h
    63  0000                     postinc2 equ 0FDEh
    64  0000                     preinc0 equ 0FECh
    65  0000                     preinc1 equ 0FE4h
    66  0000                     preinc2 equ 0FDCh
    67  0000                     prod equ 0FF3h
    68  0000                     prodh equ 0FF4h
    69  0000                     prodl equ 0FF3h
    70  0000                     status equ 0FD8h
    71  0000                     tablat equ 0FF5h
    72  0000                     tblptr equ 0FF6h
    73  0000                     tblptrh equ 0FF7h
    74  0000                     tblptrl equ 0FF6h
    75  0000                     tblptru equ 0FF8h
    76  0000                     tosl equ 0FFDh
    77  0000                     wreg equ 0FE8h
    78  0000                     
     2                           opt pagewidth 120
     3  0000                     byte0	macro	val
     4                           	(getbyte(val,0))
     5                           endm
     6  0000                     byte1	macro	val
     7                           	(getbyte(val,1))
     8                           endm
     9  0000                     byte2	macro	val
    10                           	(getbyte(val,2))
    11                           endm
    12  0000                     byte3	macro	val
    13                           	(getbyte(val,3))
    14                           endm
    15  0000                     byte4	macro	val
    16                           	(getbyte(val,4))
    17                           endm
    18  0000                     byte5	macro	val
    19                           	(getbyte(val,5))
    20                           endm
    21  0000                     byte6	macro	val
    22                           	(getbyte(val,6))
    23                           endm
    24  0000                     byte7	macro	val
    25                           	(getbyte(val,7))
    26                           endm
    27  0000                     getword	macro	val,pos
    28                           	(((val) >> (8 * pos)) and 0xffff)
    29                           endm
    30  0000                     word0	macro	val
    31                           	(getword(val,0))
    32                           endm
    33  0000                     word1	macro	val
    34                           	(getword(val,2))
    35                           endm
    36  0000                     word2	macro	val
    37                           	(getword(val,4))
    38                           endm
    39  0000                     word3	macro	val
    40                           	(getword(val,6))
    41                           endm
    42  0000                     gettword	macro	val,pos
    43                           	(((val) >> (8 * pos)) and 0xffffff)
    44                           endm
    45  0000                     tword0	macro	val
    46                           	(gettword(val,0))
    47                           endm
    48  0000                     tword1	macro	val
    49                           	(gettword(val,3))
    50                           endm
    51  0000                     tword2	macro	val
    52                           	(gettword(val,6))
    53                           endm
    54  0000                     getdword	macro	val,pos
    55                           	(((val) >> (8 * pos)) and 0xffffffff)
    56                           endm
    57  0000                     dword0	macro	val
    58                           	(getdword(val,0))
    59                           endm
    60  0000                     dword1	macro	val
    61                           	(getdword(val,4))
    62                           endm
    63  0000                     clrc   macro
    64                           	bcf	status,0
    65                           endm
    66  0000                     setc   macro
    67                           	bsf	status,0
    68                           endm
    69  0000                     clrz   macro
    70                           	bcf	status,2
    71                           endm
    72  0000                     setz   macro
    73                           	bsf	status,2
    74                           endm
    75  0000                     skipnz macro
    76                           	btfsc	status,2
    77                           endm
    78  0000                     skipz  macro
    79                           	btfss	status,2
    80                           endm
    81  0000                     skipnc macro
    82                           	btfsc	status,0
    83                           endm
    84  0000                     skipc  macro
    85                           	btfss	status,0
    86                           endm
    87  0000                     pushw macro
    88                           	movwf postinc1
    89                           endm
    90  0000                     pushf macro arg1
    91                           	movff arg1, postinc1
    92                           endm
    93  0000                     popw macro
    94                           	movf postdec1,f
    95                           	movf indf1,w
    96                           endm
    97  0000                     popf macro arg1
    98                           	movf postdec1,f
    99                           	movff indf1,arg1
   100                           endm
   101  0000                     popfc macro arg1
   102                           	movff plusw1,arg1
   103                           	decfsz fsr1,f
   104                           endm
   105  0000                     	global	__ramtop
   106                           	global	__accesstop
   107                           # 54 "/opt/microchip/xc8/v2.00/pic/include/pic18f26k22.h"
   108                           ANSELA equ 0F38h ;# 
   109  0000                     # 99 "/opt/microchip/xc8/v2.00/pic/include/pic18f26k22.h"
   110                           ANSELB equ 0F39h ;# 
   111  0000                     # 149 "/opt/microchip/xc8/v2.00/pic/include/pic18f26k22.h"
   112                           ANSELC equ 0F3Ah ;# 
   113  0000                     # 200 "/opt/microchip/xc8/v2.00/pic/include/pic18f26k22.h"
   114                           PMD2 equ 0F3Dh ;# 
   115  0000                     # 238 "/opt/microchip/xc8/v2.00/pic/include/pic18f26k22.h"
   116                           PMD1 equ 0F3Eh ;# 
   117  0000                     # 303 "/opt/microchip/xc8/v2.00/pic/include/pic18f26k22.h"
   118                           PMD0 equ 0F3Fh ;# 
   119  0000                     # 380 "/opt/microchip/xc8/v2.00/pic/include/pic18f26k22.h"
   120                           VREFCON2 equ 0F40h ;# 
   121  0000                     # 385 "/opt/microchip/xc8/v2.00/pic/include/pic18f26k22.h"
   122                           DACCON1 equ 0F40h ;# 
   123  0000                     # 482 "/opt/microchip/xc8/v2.00/pic/include/pic18f26k22.h"
   124                           VREFCON1 equ 0F41h ;# 
   125  0000                     # 487 "/opt/microchip/xc8/v2.00/pic/include/pic18f26k22.h"
   126                           DACCON0 equ 0F41h ;# 
   127  0000                     # 602 "/opt/microchip/xc8/v2.00/pic/include/pic18f26k22.h"
   128                           VREFCON0 equ 0F42h ;# 
   129  0000                     # 607 "/opt/microchip/xc8/v2.00/pic/include/pic18f26k22.h"
   130                           FVRCON equ 0F42h ;# 
   131  0000                     # 696 "/opt/microchip/xc8/v2.00/pic/include/pic18f26k22.h"
   132                           CTMUICON equ 0F43h ;# 
   133  0000                     # 701 "/opt/microchip/xc8/v2.00/pic/include/pic18f26k22.h"
   134                           CTMUICONH equ 0F43h ;# 
   135  0000                     # 846 "/opt/microchip/xc8/v2.00/pic/include/pic18f26k22.h"
   136                           CTMUCONL equ 0F44h ;# 
   137  0000                     # 851 "/opt/microchip/xc8/v2.00/pic/include/pic18f26k22.h"
   138                           CTMUCON1 equ 0F44h ;# 
   139  0000                     # 1000 "/opt/microchip/xc8/v2.00/pic/include/pic18f26k22.h"
   140                           CTMUCONH equ 0F45h ;# 
   141  0000                     # 1005 "/opt/microchip/xc8/v2.00/pic/include/pic18f26k22.h"
   142                           CTMUCON0 equ 0F45h ;# 
   143  0000                     # 1112 "/opt/microchip/xc8/v2.00/pic/include/pic18f26k22.h"
   144                           SRCON1 equ 0F46h ;# 
   145  0000                     # 1174 "/opt/microchip/xc8/v2.00/pic/include/pic18f26k22.h"
   146                           SRCON0 equ 0F47h ;# 
   147  0000                     # 1245 "/opt/microchip/xc8/v2.00/pic/include/pic18f26k22.h"
   148                           CCPTMRS1 equ 0F48h ;# 
   149  0000                     # 1297 "/opt/microchip/xc8/v2.00/pic/include/pic18f26k22.h"
   150                           CCPTMRS0 equ 0F49h ;# 
   151  0000                     # 1371 "/opt/microchip/xc8/v2.00/pic/include/pic18f26k22.h"
   152                           T6CON equ 0F4Ah ;# 
   153  0000                     # 1442 "/opt/microchip/xc8/v2.00/pic/include/pic18f26k22.h"
   154                           PR6 equ 0F4Bh ;# 
   155  0000                     # 1462 "/opt/microchip/xc8/v2.00/pic/include/pic18f26k22.h"
   156                           TMR6 equ 0F4Ch ;# 
   157  0000                     # 1482 "/opt/microchip/xc8/v2.00/pic/include/pic18f26k22.h"
   158                           T5GCON equ 0F4Dh ;# 
   159  0000                     # 1577 "/opt/microchip/xc8/v2.00/pic/include/pic18f26k22.h"
   160                           T5CON equ 0F4Eh ;# 
   161  0000                     # 1686 "/opt/microchip/xc8/v2.00/pic/include/pic18f26k22.h"
   162                           TMR5 equ 0F4Fh ;# 
   163  0000                     # 1693 "/opt/microchip/xc8/v2.00/pic/include/pic18f26k22.h"
   164                           TMR5L equ 0F4Fh ;# 
   165  0000                     # 1713 "/opt/microchip/xc8/v2.00/pic/include/pic18f26k22.h"
   166                           TMR5H equ 0F50h ;# 
   167  0000                     # 1733 "/opt/microchip/xc8/v2.00/pic/include/pic18f26k22.h"
   168                           T4CON equ 0F51h ;# 
   169  0000                     # 1804 "/opt/microchip/xc8/v2.00/pic/include/pic18f26k22.h"
   170                           PR4 equ 0F52h ;# 
   171  0000                     # 1824 "/opt/microchip/xc8/v2.00/pic/include/pic18f26k22.h"
   172                           TMR4 equ 0F53h ;# 
   173  0000                     # 1844 "/opt/microchip/xc8/v2.00/pic/include/pic18f26k22.h"
   174                           CCP5CON equ 0F54h ;# 
   175  0000                     # 1908 "/opt/microchip/xc8/v2.00/pic/include/pic18f26k22.h"
   176                           CCPR5 equ 0F55h ;# 
   177  0000                     # 1915 "/opt/microchip/xc8/v2.00/pic/include/pic18f26k22.h"
   178                           CCPR5L equ 0F55h ;# 
   179  0000                     # 1935 "/opt/microchip/xc8/v2.00/pic/include/pic18f26k22.h"
   180                           CCPR5H equ 0F56h ;# 
   181  0000                     # 1955 "/opt/microchip/xc8/v2.00/pic/include/pic18f26k22.h"
   182                           CCP4CON equ 0F57h ;# 
   183  0000                     # 2019 "/opt/microchip/xc8/v2.00/pic/include/pic18f26k22.h"
   184                           CCPR4 equ 0F58h ;# 
   185  0000                     # 2026 "/opt/microchip/xc8/v2.00/pic/include/pic18f26k22.h"
   186                           CCPR4L equ 0F58h ;# 
   187  0000                     # 2046 "/opt/microchip/xc8/v2.00/pic/include/pic18f26k22.h"
   188                           CCPR4H equ 0F59h ;# 
   189  0000                     # 2066 "/opt/microchip/xc8/v2.00/pic/include/pic18f26k22.h"
   190                           PSTR3CON equ 0F5Ah ;# 
   191  0000                     # 2142 "/opt/microchip/xc8/v2.00/pic/include/pic18f26k22.h"
   192                           ECCP3AS equ 0F5Bh ;# 
   193  0000                     # 2147 "/opt/microchip/xc8/v2.00/pic/include/pic18f26k22.h"
   194                           CCP3AS equ 0F5Bh ;# 
   195  0000                     # 2384 "/opt/microchip/xc8/v2.00/pic/include/pic18f26k22.h"
   196                           PWM3CON equ 0F5Ch ;# 
   197  0000                     # 2454 "/opt/microchip/xc8/v2.00/pic/include/pic18f26k22.h"
   198                           CCP3CON equ 0F5Dh ;# 
   199  0000                     # 2536 "/opt/microchip/xc8/v2.00/pic/include/pic18f26k22.h"
   200                           CCPR3 equ 0F5Eh ;# 
   201  0000                     # 2543 "/opt/microchip/xc8/v2.00/pic/include/pic18f26k22.h"
   202                           CCPR3L equ 0F5Eh ;# 
   203  0000                     # 2563 "/opt/microchip/xc8/v2.00/pic/include/pic18f26k22.h"
   204                           CCPR3H equ 0F5Fh ;# 
   205  0000                     # 2583 "/opt/microchip/xc8/v2.00/pic/include/pic18f26k22.h"
   206                           SLRCON equ 0F60h ;# 
   207  0000                     # 2615 "/opt/microchip/xc8/v2.00/pic/include/pic18f26k22.h"
   208                           WPUB equ 0F61h ;# 
   209  0000                     # 2677 "/opt/microchip/xc8/v2.00/pic/include/pic18f26k22.h"
   210                           IOCB equ 0F62h ;# 
   211  0000                     # 2716 "/opt/microchip/xc8/v2.00/pic/include/pic18f26k22.h"
   212                           PSTR2CON equ 0F63h ;# 
   213  0000                     # 2856 "/opt/microchip/xc8/v2.00/pic/include/pic18f26k22.h"
   214                           ECCP2AS equ 0F64h ;# 
   215  0000                     # 2861 "/opt/microchip/xc8/v2.00/pic/include/pic18f26k22.h"
   216                           CCP2AS equ 0F64h ;# 
   217  0000                     # 3098 "/opt/microchip/xc8/v2.00/pic/include/pic18f26k22.h"
   218                           PWM2CON equ 0F65h ;# 
   219  0000                     # 3168 "/opt/microchip/xc8/v2.00/pic/include/pic18f26k22.h"
   220                           CCP2CON equ 0F66h ;# 
   221  0000                     # 3250 "/opt/microchip/xc8/v2.00/pic/include/pic18f26k22.h"
   222                           CCPR2 equ 0F67h ;# 
   223  0000                     # 3257 "/opt/microchip/xc8/v2.00/pic/include/pic18f26k22.h"
   224                           CCPR2L equ 0F67h ;# 
   225  0000                     # 3277 "/opt/microchip/xc8/v2.00/pic/include/pic18f26k22.h"
   226                           CCPR2H equ 0F68h ;# 
   227  0000                     # 3297 "/opt/microchip/xc8/v2.00/pic/include/pic18f26k22.h"
   228                           SSP2CON3 equ 0F69h ;# 
   229  0000                     # 3359 "/opt/microchip/xc8/v2.00/pic/include/pic18f26k22.h"
   230                           SSP2MSK equ 0F6Ah ;# 
   231  0000                     # 3429 "/opt/microchip/xc8/v2.00/pic/include/pic18f26k22.h"
   232                           SSP2CON2 equ 0F6Bh ;# 
   233  0000                     # 3574 "/opt/microchip/xc8/v2.00/pic/include/pic18f26k22.h"
   234                           SSP2CON1 equ 0F6Ch ;# 
   235  0000                     # 3694 "/opt/microchip/xc8/v2.00/pic/include/pic18f26k22.h"
   236                           SSP2STAT equ 0F6Dh ;# 
   237  0000                     # 4094 "/opt/microchip/xc8/v2.00/pic/include/pic18f26k22.h"
   238                           SSP2ADD equ 0F6Eh ;# 
   239  0000                     # 4164 "/opt/microchip/xc8/v2.00/pic/include/pic18f26k22.h"
   240                           SSP2BUF equ 0F6Fh ;# 
   241  0000                     # 4184 "/opt/microchip/xc8/v2.00/pic/include/pic18f26k22.h"
   242                           BAUDCON2 equ 0F70h ;# 
   243  0000                     # 4189 "/opt/microchip/xc8/v2.00/pic/include/pic18f26k22.h"
   244                           BAUD2CON equ 0F70h ;# 
   245  0000                     # 4446 "/opt/microchip/xc8/v2.00/pic/include/pic18f26k22.h"
   246                           RCSTA2 equ 0F71h ;# 
   247  0000                     # 4451 "/opt/microchip/xc8/v2.00/pic/include/pic18f26k22.h"
   248                           RC2STA equ 0F71h ;# 
   249  0000                     # 4734 "/opt/microchip/xc8/v2.00/pic/include/pic18f26k22.h"
   250                           TXSTA2 equ 0F72h ;# 
   251  0000                     # 4739 "/opt/microchip/xc8/v2.00/pic/include/pic18f26k22.h"
   252                           TX2STA equ 0F72h ;# 
   253  0000                     # 4986 "/opt/microchip/xc8/v2.00/pic/include/pic18f26k22.h"
   254                           TXREG2 equ 0F73h ;# 
   255  0000                     # 4991 "/opt/microchip/xc8/v2.00/pic/include/pic18f26k22.h"
   256                           TX2REG equ 0F73h ;# 
   257  0000                     # 5024 "/opt/microchip/xc8/v2.00/pic/include/pic18f26k22.h"
   258                           RCREG2 equ 0F74h ;# 
   259  0000                     # 5029 "/opt/microchip/xc8/v2.00/pic/include/pic18f26k22.h"
   260                           RC2REG equ 0F74h ;# 
   261  0000                     # 5062 "/opt/microchip/xc8/v2.00/pic/include/pic18f26k22.h"
   262                           SPBRG2 equ 0F75h ;# 
   263  0000                     # 5067 "/opt/microchip/xc8/v2.00/pic/include/pic18f26k22.h"
   264                           SP2BRG equ 0F75h ;# 
   265  0000                     # 5100 "/opt/microchip/xc8/v2.00/pic/include/pic18f26k22.h"
   266                           SPBRGH2 equ 0F76h ;# 
   267  0000                     # 5105 "/opt/microchip/xc8/v2.00/pic/include/pic18f26k22.h"
   268                           SP2BRGH equ 0F76h ;# 
   269  0000                     # 5138 "/opt/microchip/xc8/v2.00/pic/include/pic18f26k22.h"
   270                           CM2CON1 equ 0F77h ;# 
   271  0000                     # 5143 "/opt/microchip/xc8/v2.00/pic/include/pic18f26k22.h"
   272                           CM12CON equ 0F77h ;# 
   273  0000                     # 5260 "/opt/microchip/xc8/v2.00/pic/include/pic18f26k22.h"
   274                           CM2CON0 equ 0F78h ;# 
   275  0000                     # 5265 "/opt/microchip/xc8/v2.00/pic/include/pic18f26k22.h"
   276                           CM2CON equ 0F78h ;# 
   277  0000                     # 5540 "/opt/microchip/xc8/v2.00/pic/include/pic18f26k22.h"
   278                           CM1CON0 equ 0F79h ;# 
   279  0000                     # 5545 "/opt/microchip/xc8/v2.00/pic/include/pic18f26k22.h"
   280                           CM1CON equ 0F79h ;# 
   281  0000                     # 5962 "/opt/microchip/xc8/v2.00/pic/include/pic18f26k22.h"
   282                           PIE4 equ 0F7Ah ;# 
   283  0000                     # 5994 "/opt/microchip/xc8/v2.00/pic/include/pic18f26k22.h"
   284                           PIR4 equ 0F7Bh ;# 
   285  0000                     # 6026 "/opt/microchip/xc8/v2.00/pic/include/pic18f26k22.h"
   286                           IPR4 equ 0F7Ch ;# 
   287  0000                     # 6066 "/opt/microchip/xc8/v2.00/pic/include/pic18f26k22.h"
   288                           PIE5 equ 0F7Dh ;# 
   289  0000                     # 6098 "/opt/microchip/xc8/v2.00/pic/include/pic18f26k22.h"
   290                           PIR5 equ 0F7Eh ;# 
   291  0000                     # 6130 "/opt/microchip/xc8/v2.00/pic/include/pic18f26k22.h"
   292                           IPR5 equ 0F7Fh ;# 
   293  0000                     # 6176 "/opt/microchip/xc8/v2.00/pic/include/pic18f26k22.h"
   294                           PORTA equ 0F80h ;# 
   295  0000                     # 6467 "/opt/microchip/xc8/v2.00/pic/include/pic18f26k22.h"
   296                           PORTB equ 0F81h ;# 
   297  0000                     # 6840 "/opt/microchip/xc8/v2.00/pic/include/pic18f26k22.h"
   298                           PORTC equ 0F82h ;# 
   299  0000                     # 7171 "/opt/microchip/xc8/v2.00/pic/include/pic18f26k22.h"
   300                           PORTE equ 0F84h ;# 
   301  0000                     # 7246 "/opt/microchip/xc8/v2.00/pic/include/pic18f26k22.h"
   302                           LATA equ 0F89h ;# 
   303  0000                     # 7358 "/opt/microchip/xc8/v2.00/pic/include/pic18f26k22.h"
   304                           LATB equ 0F8Ah ;# 
   305  0000                     # 7470 "/opt/microchip/xc8/v2.00/pic/include/pic18f26k22.h"
   306                           LATC equ 0F8Bh ;# 
   307  0000                     # 7582 "/opt/microchip/xc8/v2.00/pic/include/pic18f26k22.h"
   308                           TRISA equ 0F92h ;# 
   309  0000                     # 7587 "/opt/microchip/xc8/v2.00/pic/include/pic18f26k22.h"
   310                           DDRA equ 0F92h ;# 
   311  0000                     # 7804 "/opt/microchip/xc8/v2.00/pic/include/pic18f26k22.h"
   312                           TRISB equ 0F93h ;# 
   313  0000                     # 7809 "/opt/microchip/xc8/v2.00/pic/include/pic18f26k22.h"
   314                           DDRB equ 0F93h ;# 
   315  0000                     # 8026 "/opt/microchip/xc8/v2.00/pic/include/pic18f26k22.h"
   316                           TRISC equ 0F94h ;# 
   317  0000                     # 8031 "/opt/microchip/xc8/v2.00/pic/include/pic18f26k22.h"
   318                           DDRC equ 0F94h ;# 
   319  0000                     # 8248 "/opt/microchip/xc8/v2.00/pic/include/pic18f26k22.h"
   320                           TRISE equ 0F96h ;# 
   321  0000                     # 8269 "/opt/microchip/xc8/v2.00/pic/include/pic18f26k22.h"
   322                           OSCTUNE equ 0F9Bh ;# 
   323  0000                     # 8339 "/opt/microchip/xc8/v2.00/pic/include/pic18f26k22.h"
   324                           HLVDCON equ 0F9Ch ;# 
   325  0000                     # 8344 "/opt/microchip/xc8/v2.00/pic/include/pic18f26k22.h"
   326                           LVDCON equ 0F9Ch ;# 
   327  0000                     # 8619 "/opt/microchip/xc8/v2.00/pic/include/pic18f26k22.h"
   328                           PIE1 equ 0F9Dh ;# 
   329  0000                     # 8696 "/opt/microchip/xc8/v2.00/pic/include/pic18f26k22.h"
   330                           PIR1 equ 0F9Eh ;# 
   331  0000                     # 8773 "/opt/microchip/xc8/v2.00/pic/include/pic18f26k22.h"
   332                           IPR1 equ 0F9Fh ;# 
   333  0000                     # 8850 "/opt/microchip/xc8/v2.00/pic/include/pic18f26k22.h"
   334                           PIE2 equ 0FA0h ;# 
   335  0000                     # 8936 "/opt/microchip/xc8/v2.00/pic/include/pic18f26k22.h"
   336                           PIR2 equ 0FA1h ;# 
   337  0000                     # 9022 "/opt/microchip/xc8/v2.00/pic/include/pic18f26k22.h"
   338                           IPR2 equ 0FA2h ;# 
   339  0000                     # 9108 "/opt/microchip/xc8/v2.00/pic/include/pic18f26k22.h"
   340                           PIE3 equ 0FA3h ;# 
   341  0000                     # 9218 "/opt/microchip/xc8/v2.00/pic/include/pic18f26k22.h"
   342                           PIR3 equ 0FA4h ;# 
   343  0000                     # 9296 "/opt/microchip/xc8/v2.00/pic/include/pic18f26k22.h"
   344                           IPR3 equ 0FA5h ;# 
   345  0000                     # 9374 "/opt/microchip/xc8/v2.00/pic/include/pic18f26k22.h"
   346                           EECON1 equ 0FA6h ;# 
   347  0000                     # 9440 "/opt/microchip/xc8/v2.00/pic/include/pic18f26k22.h"
   348                           EECON2 equ 0FA7h ;# 
   349  0000                     # 9460 "/opt/microchip/xc8/v2.00/pic/include/pic18f26k22.h"
   350                           EEDATA equ 0FA8h ;# 
   351  0000                     # 9480 "/opt/microchip/xc8/v2.00/pic/include/pic18f26k22.h"
   352                           EEADR equ 0FA9h ;# 
   353  0000                     # 9550 "/opt/microchip/xc8/v2.00/pic/include/pic18f26k22.h"
   354                           EEADRH equ 0FAAh ;# 
   355  0000                     # 9584 "/opt/microchip/xc8/v2.00/pic/include/pic18f26k22.h"
   356                           RCSTA1 equ 0FABh ;# 
   357  0000                     # 9589 "/opt/microchip/xc8/v2.00/pic/include/pic18f26k22.h"
   358                           RCSTA equ 0FABh ;# 
   359  0000                     # 9593 "/opt/microchip/xc8/v2.00/pic/include/pic18f26k22.h"
   360                           RC1STA equ 0FABh ;# 
   361  0000                     # 10040 "/opt/microchip/xc8/v2.00/pic/include/pic18f26k22.h"
   362                           TXSTA1 equ 0FACh ;# 
   363  0000                     # 10045 "/opt/microchip/xc8/v2.00/pic/include/pic18f26k22.h"
   364                           TXSTA equ 0FACh ;# 
   365  0000                     # 10049 "/opt/microchip/xc8/v2.00/pic/include/pic18f26k22.h"
   366                           TX1STA equ 0FACh ;# 
   367  0000                     # 10415 "/opt/microchip/xc8/v2.00/pic/include/pic18f26k22.h"
   368                           TXREG1 equ 0FADh ;# 
   369  0000                     # 10420 "/opt/microchip/xc8/v2.00/pic/include/pic18f26k22.h"
   370                           TXREG equ 0FADh ;# 
   371  0000                     # 10424 "/opt/microchip/xc8/v2.00/pic/include/pic18f26k22.h"
   372                           TX1REG equ 0FADh ;# 
   373  0000                     # 10493 "/opt/microchip/xc8/v2.00/pic/include/pic18f26k22.h"
   374                           RCREG1 equ 0FAEh ;# 
   375  0000                     # 10498 "/opt/microchip/xc8/v2.00/pic/include/pic18f26k22.h"
   376                           RCREG equ 0FAEh ;# 
   377  0000                     # 10502 "/opt/microchip/xc8/v2.00/pic/include/pic18f26k22.h"
   378                           RC1REG equ 0FAEh ;# 
   379  0000                     # 10571 "/opt/microchip/xc8/v2.00/pic/include/pic18f26k22.h"
   380                           SPBRG1 equ 0FAFh ;# 
   381  0000                     # 10576 "/opt/microchip/xc8/v2.00/pic/include/pic18f26k22.h"
   382                           SPBRG equ 0FAFh ;# 
   383  0000                     # 10580 "/opt/microchip/xc8/v2.00/pic/include/pic18f26k22.h"
   384                           SP1BRG equ 0FAFh ;# 
   385  0000                     # 10649 "/opt/microchip/xc8/v2.00/pic/include/pic18f26k22.h"
   386                           SPBRGH1 equ 0FB0h ;# 
   387  0000                     # 10654 "/opt/microchip/xc8/v2.00/pic/include/pic18f26k22.h"
   388                           SPBRGH equ 0FB0h ;# 
   389  0000                     # 10658 "/opt/microchip/xc8/v2.00/pic/include/pic18f26k22.h"
   390                           SP1BRGH equ 0FB0h ;# 
   391  0000                     # 10727 "/opt/microchip/xc8/v2.00/pic/include/pic18f26k22.h"
   392                           T3CON equ 0FB1h ;# 
   393  0000                     # 10835 "/opt/microchip/xc8/v2.00/pic/include/pic18f26k22.h"
   394                           TMR3 equ 0FB2h ;# 
   395  0000                     # 10842 "/opt/microchip/xc8/v2.00/pic/include/pic18f26k22.h"
   396                           TMR3L equ 0FB2h ;# 
   397  0000                     # 10862 "/opt/microchip/xc8/v2.00/pic/include/pic18f26k22.h"
   398                           TMR3H equ 0FB3h ;# 
   399  0000                     # 10882 "/opt/microchip/xc8/v2.00/pic/include/pic18f26k22.h"
   400                           T3GCON equ 0FB4h ;# 
   401  0000                     # 10977 "/opt/microchip/xc8/v2.00/pic/include/pic18f26k22.h"
   402                           ECCP1AS equ 0FB6h ;# 
   403  0000                     # 10982 "/opt/microchip/xc8/v2.00/pic/include/pic18f26k22.h"
   404                           ECCPAS equ 0FB6h ;# 
   405  0000                     # 11359 "/opt/microchip/xc8/v2.00/pic/include/pic18f26k22.h"
   406                           PWM1CON equ 0FB7h ;# 
   407  0000                     # 11364 "/opt/microchip/xc8/v2.00/pic/include/pic18f26k22.h"
   408                           PWMCON equ 0FB7h ;# 
   409  0000                     # 11613 "/opt/microchip/xc8/v2.00/pic/include/pic18f26k22.h"
   410                           BAUDCON1 equ 0FB8h ;# 
   411  0000                     # 11618 "/opt/microchip/xc8/v2.00/pic/include/pic18f26k22.h"
   412                           BAUDCON equ 0FB8h ;# 
   413  0000                     # 11622 "/opt/microchip/xc8/v2.00/pic/include/pic18f26k22.h"
   414                           BAUDCTL equ 0FB8h ;# 
   415  0000                     # 11626 "/opt/microchip/xc8/v2.00/pic/include/pic18f26k22.h"
   416                           BAUD1CON equ 0FB8h ;# 
   417  0000                     # 12287 "/opt/microchip/xc8/v2.00/pic/include/pic18f26k22.h"
   418                           PSTR1CON equ 0FB9h ;# 
   419  0000                     # 12292 "/opt/microchip/xc8/v2.00/pic/include/pic18f26k22.h"
   420                           PSTRCON equ 0FB9h ;# 
   421  0000                     # 12437 "/opt/microchip/xc8/v2.00/pic/include/pic18f26k22.h"
   422                           T2CON equ 0FBAh ;# 
   423  0000                     # 12508 "/opt/microchip/xc8/v2.00/pic/include/pic18f26k22.h"
   424                           PR2 equ 0FBBh ;# 
   425  0000                     # 12528 "/opt/microchip/xc8/v2.00/pic/include/pic18f26k22.h"
   426                           TMR2 equ 0FBCh ;# 
   427  0000                     # 12548 "/opt/microchip/xc8/v2.00/pic/include/pic18f26k22.h"
   428                           CCP1CON equ 0FBDh ;# 
   429  0000                     # 12630 "/opt/microchip/xc8/v2.00/pic/include/pic18f26k22.h"
   430                           CCPR1 equ 0FBEh ;# 
   431  0000                     # 12637 "/opt/microchip/xc8/v2.00/pic/include/pic18f26k22.h"
   432                           CCPR1L equ 0FBEh ;# 
   433  0000                     # 12657 "/opt/microchip/xc8/v2.00/pic/include/pic18f26k22.h"
   434                           CCPR1H equ 0FBFh ;# 
   435  0000                     # 12677 "/opt/microchip/xc8/v2.00/pic/include/pic18f26k22.h"
   436                           ADCON2 equ 0FC0h ;# 
   437  0000                     # 12748 "/opt/microchip/xc8/v2.00/pic/include/pic18f26k22.h"
   438                           ADCON1 equ 0FC1h ;# 
   439  0000                     # 12816 "/opt/microchip/xc8/v2.00/pic/include/pic18f26k22.h"
   440                           ADCON0 equ 0FC2h ;# 
   441  0000                     # 12941 "/opt/microchip/xc8/v2.00/pic/include/pic18f26k22.h"
   442                           ADRES equ 0FC3h ;# 
   443  0000                     # 12948 "/opt/microchip/xc8/v2.00/pic/include/pic18f26k22.h"
   444                           ADRESL equ 0FC3h ;# 
   445  0000                     # 12968 "/opt/microchip/xc8/v2.00/pic/include/pic18f26k22.h"
   446                           ADRESH equ 0FC4h ;# 
   447  0000                     # 12988 "/opt/microchip/xc8/v2.00/pic/include/pic18f26k22.h"
   448                           SSP1CON2 equ 0FC5h ;# 
   449  0000                     # 12993 "/opt/microchip/xc8/v2.00/pic/include/pic18f26k22.h"
   450                           SSPCON2 equ 0FC5h ;# 
   451  0000                     # 13342 "/opt/microchip/xc8/v2.00/pic/include/pic18f26k22.h"
   452                           SSP1CON1 equ 0FC6h ;# 
   453  0000                     # 13347 "/opt/microchip/xc8/v2.00/pic/include/pic18f26k22.h"
   454                           SSPCON1 equ 0FC6h ;# 
   455  0000                     # 13580 "/opt/microchip/xc8/v2.00/pic/include/pic18f26k22.h"
   456                           SSP1STAT equ 0FC7h ;# 
   457  0000                     # 13585 "/opt/microchip/xc8/v2.00/pic/include/pic18f26k22.h"
   458                           SSPSTAT equ 0FC7h ;# 
   459  0000                     # 14210 "/opt/microchip/xc8/v2.00/pic/include/pic18f26k22.h"
   460                           SSP1ADD equ 0FC8h ;# 
   461  0000                     # 14215 "/opt/microchip/xc8/v2.00/pic/include/pic18f26k22.h"
   462                           SSPADD equ 0FC8h ;# 
   463  0000                     # 14464 "/opt/microchip/xc8/v2.00/pic/include/pic18f26k22.h"
   464                           SSP1BUF equ 0FC9h ;# 
   465  0000                     # 14469 "/opt/microchip/xc8/v2.00/pic/include/pic18f26k22.h"
   466                           SSPBUF equ 0FC9h ;# 
   467  0000                     # 14518 "/opt/microchip/xc8/v2.00/pic/include/pic18f26k22.h"
   468                           SSP1MSK equ 0FCAh ;# 
   469  0000                     # 14523 "/opt/microchip/xc8/v2.00/pic/include/pic18f26k22.h"
   470                           SSPMSK equ 0FCAh ;# 
   471  0000                     # 14656 "/opt/microchip/xc8/v2.00/pic/include/pic18f26k22.h"
   472                           SSP1CON3 equ 0FCBh ;# 
   473  0000                     # 14661 "/opt/microchip/xc8/v2.00/pic/include/pic18f26k22.h"
   474                           SSPCON3 equ 0FCBh ;# 
   475  0000                     # 14778 "/opt/microchip/xc8/v2.00/pic/include/pic18f26k22.h"
   476                           T1GCON equ 0FCCh ;# 
   477  0000                     # 14873 "/opt/microchip/xc8/v2.00/pic/include/pic18f26k22.h"
   478                           T1CON equ 0FCDh ;# 
   479  0000                     # 14986 "/opt/microchip/xc8/v2.00/pic/include/pic18f26k22.h"
   480                           TMR1 equ 0FCEh ;# 
   481  0000                     # 14993 "/opt/microchip/xc8/v2.00/pic/include/pic18f26k22.h"
   482                           TMR1L equ 0FCEh ;# 
   483  0000                     # 15013 "/opt/microchip/xc8/v2.00/pic/include/pic18f26k22.h"
   484                           TMR1H equ 0FCFh ;# 
   485  0000                     # 15033 "/opt/microchip/xc8/v2.00/pic/include/pic18f26k22.h"
   486                           RCON equ 0FD0h ;# 
   487  0000                     # 15166 "/opt/microchip/xc8/v2.00/pic/include/pic18f26k22.h"
   488                           WDTCON equ 0FD1h ;# 
   489  0000                     # 15194 "/opt/microchip/xc8/v2.00/pic/include/pic18f26k22.h"
   490                           OSCCON2 equ 0FD2h ;# 
   491  0000                     # 15251 "/opt/microchip/xc8/v2.00/pic/include/pic18f26k22.h"
   492                           OSCCON equ 0FD3h ;# 
   493  0000                     # 15334 "/opt/microchip/xc8/v2.00/pic/include/pic18f26k22.h"
   494                           T0CON equ 0FD5h ;# 
   495  0000                     # 15404 "/opt/microchip/xc8/v2.00/pic/include/pic18f26k22.h"
   496                           TMR0 equ 0FD6h ;# 
   497  0000                     # 15411 "/opt/microchip/xc8/v2.00/pic/include/pic18f26k22.h"
   498                           TMR0L equ 0FD6h ;# 
   499  0000                     # 15431 "/opt/microchip/xc8/v2.00/pic/include/pic18f26k22.h"
   500                           TMR0H equ 0FD7h ;# 
   501  0000                     # 15451 "/opt/microchip/xc8/v2.00/pic/include/pic18f26k22.h"
   502                           STATUS equ 0FD8h ;# 
   503  0000                     # 15522 "/opt/microchip/xc8/v2.00/pic/include/pic18f26k22.h"
   504                           FSR2 equ 0FD9h ;# 
   505  0000                     # 15529 "/opt/microchip/xc8/v2.00/pic/include/pic18f26k22.h"
   506                           FSR2L equ 0FD9h ;# 
   507  0000                     # 15549 "/opt/microchip/xc8/v2.00/pic/include/pic18f26k22.h"
   508                           FSR2H equ 0FDAh ;# 
   509  0000                     # 15556 "/opt/microchip/xc8/v2.00/pic/include/pic18f26k22.h"
   510                           PLUSW2 equ 0FDBh ;# 
   511  0000                     # 15576 "/opt/microchip/xc8/v2.00/pic/include/pic18f26k22.h"
   512                           PREINC2 equ 0FDCh ;# 
   513  0000                     # 15596 "/opt/microchip/xc8/v2.00/pic/include/pic18f26k22.h"
   514                           POSTDEC2 equ 0FDDh ;# 
   515  0000                     # 15616 "/opt/microchip/xc8/v2.00/pic/include/pic18f26k22.h"
   516                           POSTINC2 equ 0FDEh ;# 
   517  0000                     # 15636 "/opt/microchip/xc8/v2.00/pic/include/pic18f26k22.h"
   518                           INDF2 equ 0FDFh ;# 
   519  0000                     # 15656 "/opt/microchip/xc8/v2.00/pic/include/pic18f26k22.h"
   520                           BSR equ 0FE0h ;# 
   521  0000                     # 15663 "/opt/microchip/xc8/v2.00/pic/include/pic18f26k22.h"
   522                           FSR1 equ 0FE1h ;# 
   523  0000                     # 15670 "/opt/microchip/xc8/v2.00/pic/include/pic18f26k22.h"
   524                           FSR1L equ 0FE1h ;# 
   525  0000                     # 15690 "/opt/microchip/xc8/v2.00/pic/include/pic18f26k22.h"
   526                           FSR1H equ 0FE2h ;# 
   527  0000                     # 15697 "/opt/microchip/xc8/v2.00/pic/include/pic18f26k22.h"
   528                           PLUSW1 equ 0FE3h ;# 
   529  0000                     # 15717 "/opt/microchip/xc8/v2.00/pic/include/pic18f26k22.h"
   530                           PREINC1 equ 0FE4h ;# 
   531  0000                     # 15737 "/opt/microchip/xc8/v2.00/pic/include/pic18f26k22.h"
   532                           POSTDEC1 equ 0FE5h ;# 
   533  0000                     # 15757 "/opt/microchip/xc8/v2.00/pic/include/pic18f26k22.h"
   534                           POSTINC1 equ 0FE6h ;# 
   535  0000                     # 15777 "/opt/microchip/xc8/v2.00/pic/include/pic18f26k22.h"
   536                           INDF1 equ 0FE7h ;# 
   537  0000                     # 15797 "/opt/microchip/xc8/v2.00/pic/include/pic18f26k22.h"
   538                           WREG equ 0FE8h ;# 
   539  0000                     # 15835 "/opt/microchip/xc8/v2.00/pic/include/pic18f26k22.h"
   540                           FSR0 equ 0FE9h ;# 
   541  0000                     # 15842 "/opt/microchip/xc8/v2.00/pic/include/pic18f26k22.h"
   542                           FSR0L equ 0FE9h ;# 
   543  0000                     # 15862 "/opt/microchip/xc8/v2.00/pic/include/pic18f26k22.h"
   544                           FSR0H equ 0FEAh ;# 
   545  0000                     # 15869 "/opt/microchip/xc8/v2.00/pic/include/pic18f26k22.h"
   546                           PLUSW0 equ 0FEBh ;# 
   547  0000                     # 15889 "/opt/microchip/xc8/v2.00/pic/include/pic18f26k22.h"
   548                           PREINC0 equ 0FECh ;# 
   549  0000                     # 15909 "/opt/microchip/xc8/v2.00/pic/include/pic18f26k22.h"
   550                           POSTDEC0 equ 0FEDh ;# 
   551  0000                     # 15929 "/opt/microchip/xc8/v2.00/pic/include/pic18f26k22.h"
   552                           POSTINC0 equ 0FEEh ;# 
   553  0000                     # 15949 "/opt/microchip/xc8/v2.00/pic/include/pic18f26k22.h"
   554                           INDF0 equ 0FEFh ;# 
   555  0000                     # 15969 "/opt/microchip/xc8/v2.00/pic/include/pic18f26k22.h"
   556                           INTCON3 equ 0FF0h ;# 
   557  0000                     # 16061 "/opt/microchip/xc8/v2.00/pic/include/pic18f26k22.h"
   558                           INTCON2 equ 0FF1h ;# 
   559  0000                     # 16131 "/opt/microchip/xc8/v2.00/pic/include/pic18f26k22.h"
   560                           INTCON equ 0FF2h ;# 
   561  0000                     # 16248 "/opt/microchip/xc8/v2.00/pic/include/pic18f26k22.h"
   562                           PROD equ 0FF3h ;# 
   563  0000                     # 16255 "/opt/microchip/xc8/v2.00/pic/include/pic18f26k22.h"
   564                           PRODL equ 0FF3h ;# 
   565  0000                     # 16275 "/opt/microchip/xc8/v2.00/pic/include/pic18f26k22.h"
   566                           PRODH equ 0FF4h ;# 
   567  0000                     # 16295 "/opt/microchip/xc8/v2.00/pic/include/pic18f26k22.h"
   568                           TABLAT equ 0FF5h ;# 
   569  0000                     # 16317 "/opt/microchip/xc8/v2.00/pic/include/pic18f26k22.h"
   570                           TBLPTR equ 0FF6h ;# 
   571  0000                     # 16324 "/opt/microchip/xc8/v2.00/pic/include/pic18f26k22.h"
   572                           TBLPTRL equ 0FF6h ;# 
   573  0000                     # 16344 "/opt/microchip/xc8/v2.00/pic/include/pic18f26k22.h"
   574                           TBLPTRH equ 0FF7h ;# 
   575  0000                     # 16364 "/opt/microchip/xc8/v2.00/pic/include/pic18f26k22.h"
   576                           TBLPTRU equ 0FF8h ;# 
   577  0000                     # 16395 "/opt/microchip/xc8/v2.00/pic/include/pic18f26k22.h"
   578                           PCLAT equ 0FF9h ;# 
   579  0000                     # 16402 "/opt/microchip/xc8/v2.00/pic/include/pic18f26k22.h"
   580                           PC equ 0FF9h ;# 
   581  0000                     # 16409 "/opt/microchip/xc8/v2.00/pic/include/pic18f26k22.h"
   582                           PCL equ 0FF9h ;# 
   583  0000                     # 16429 "/opt/microchip/xc8/v2.00/pic/include/pic18f26k22.h"
   584                           PCLATH equ 0FFAh ;# 
   585  0000                     # 16449 "/opt/microchip/xc8/v2.00/pic/include/pic18f26k22.h"
   586                           PCLATU equ 0FFBh ;# 
   587  0000                     # 16456 "/opt/microchip/xc8/v2.00/pic/include/pic18f26k22.h"
   588                           STKPTR equ 0FFCh ;# 
   589  0000                     # 16562 "/opt/microchip/xc8/v2.00/pic/include/pic18f26k22.h"
   590                           TOS equ 0FFDh ;# 
   591  0000                     # 16569 "/opt/microchip/xc8/v2.00/pic/include/pic18f26k22.h"
   592                           TOSL equ 0FFDh ;# 
   593  0000                     # 16589 "/opt/microchip/xc8/v2.00/pic/include/pic18f26k22.h"
   594                           TOSH equ 0FFEh ;# 
   595  0000                     # 16609 "/opt/microchip/xc8/v2.00/pic/include/pic18f26k22.h"
   596                           TOSU equ 0FFFh ;# 
   597  0000                     # 54 "/opt/microchip/xc8/v2.00/pic/include/pic18f26k22.h"
   598                           ANSELA equ 0F38h ;# 
   599  0000                     # 99 "/opt/microchip/xc8/v2.00/pic/include/pic18f26k22.h"
   600                           ANSELB equ 0F39h ;# 
   601  0000                     # 149 "/opt/microchip/xc8/v2.00/pic/include/pic18f26k22.h"
   602                           ANSELC equ 0F3Ah ;# 
   603  0000                     # 200 "/opt/microchip/xc8/v2.00/pic/include/pic18f26k22.h"
   604                           PMD2 equ 0F3Dh ;# 
   605  0000                     # 238 "/opt/microchip/xc8/v2.00/pic/include/pic18f26k22.h"
   606                           PMD1 equ 0F3Eh ;# 
   607  0000                     # 303 "/opt/microchip/xc8/v2.00/pic/include/pic18f26k22.h"
   608                           PMD0 equ 0F3Fh ;# 
   609  0000                     # 380 "/opt/microchip/xc8/v2.00/pic/include/pic18f26k22.h"
   610                           VREFCON2 equ 0F40h ;# 
   611  0000                     # 385 "/opt/microchip/xc8/v2.00/pic/include/pic18f26k22.h"
   612                           DACCON1 equ 0F40h ;# 
   613  0000                     # 482 "/opt/microchip/xc8/v2.00/pic/include/pic18f26k22.h"
   614                           VREFCON1 equ 0F41h ;# 
   615  0000                     # 487 "/opt/microchip/xc8/v2.00/pic/include/pic18f26k22.h"
   616                           DACCON0 equ 0F41h ;# 
   617  0000                     # 602 "/opt/microchip/xc8/v2.00/pic/include/pic18f26k22.h"
   618                           VREFCON0 equ 0F42h ;# 
   619  0000                     # 607 "/opt/microchip/xc8/v2.00/pic/include/pic18f26k22.h"
   620                           FVRCON equ 0F42h ;# 
   621  0000                     # 696 "/opt/microchip/xc8/v2.00/pic/include/pic18f26k22.h"
   622                           CTMUICON equ 0F43h ;# 
   623  0000                     # 701 "/opt/microchip/xc8/v2.00/pic/include/pic18f26k22.h"
   624                           CTMUICONH equ 0F43h ;# 
   625  0000                     # 846 "/opt/microchip/xc8/v2.00/pic/include/pic18f26k22.h"
   626                           CTMUCONL equ 0F44h ;# 
   627  0000                     # 851 "/opt/microchip/xc8/v2.00/pic/include/pic18f26k22.h"
   628                           CTMUCON1 equ 0F44h ;# 
   629  0000                     # 1000 "/opt/microchip/xc8/v2.00/pic/include/pic18f26k22.h"
   630                           CTMUCONH equ 0F45h ;# 
   631  0000                     # 1005 "/opt/microchip/xc8/v2.00/pic/include/pic18f26k22.h"
   632                           CTMUCON0 equ 0F45h ;# 
   633  0000                     # 1112 "/opt/microchip/xc8/v2.00/pic/include/pic18f26k22.h"
   634                           SRCON1 equ 0F46h ;# 
   635  0000                     # 1174 "/opt/microchip/xc8/v2.00/pic/include/pic18f26k22.h"
   636                           SRCON0 equ 0F47h ;# 
   637  0000                     # 1245 "/opt/microchip/xc8/v2.00/pic/include/pic18f26k22.h"
   638                           CCPTMRS1 equ 0F48h ;# 
   639  0000                     # 1297 "/opt/microchip/xc8/v2.00/pic/include/pic18f26k22.h"
   640                           CCPTMRS0 equ 0F49h ;# 
   641  0000                     # 1371 "/opt/microchip/xc8/v2.00/pic/include/pic18f26k22.h"
   642                           T6CON equ 0F4Ah ;# 
   643  0000                     # 1442 "/opt/microchip/xc8/v2.00/pic/include/pic18f26k22.h"
   644                           PR6 equ 0F4Bh ;# 
   645  0000                     # 1462 "/opt/microchip/xc8/v2.00/pic/include/pic18f26k22.h"
   646                           TMR6 equ 0F4Ch ;# 
   647  0000                     # 1482 "/opt/microchip/xc8/v2.00/pic/include/pic18f26k22.h"
   648                           T5GCON equ 0F4Dh ;# 
   649  0000                     # 1577 "/opt/microchip/xc8/v2.00/pic/include/pic18f26k22.h"
   650                           T5CON equ 0F4Eh ;# 
   651  0000                     # 1686 "/opt/microchip/xc8/v2.00/pic/include/pic18f26k22.h"
   652                           TMR5 equ 0F4Fh ;# 
   653  0000                     # 1693 "/opt/microchip/xc8/v2.00/pic/include/pic18f26k22.h"
   654                           TMR5L equ 0F4Fh ;# 
   655  0000                     # 1713 "/opt/microchip/xc8/v2.00/pic/include/pic18f26k22.h"
   656                           TMR5H equ 0F50h ;# 
   657  0000                     # 1733 "/opt/microchip/xc8/v2.00/pic/include/pic18f26k22.h"
   658                           T4CON equ 0F51h ;# 
   659  0000                     # 1804 "/opt/microchip/xc8/v2.00/pic/include/pic18f26k22.h"
   660                           PR4 equ 0F52h ;# 
   661  0000                     # 1824 "/opt/microchip/xc8/v2.00/pic/include/pic18f26k22.h"
   662                           TMR4 equ 0F53h ;# 
   663  0000                     # 1844 "/opt/microchip/xc8/v2.00/pic/include/pic18f26k22.h"
   664                           CCP5CON equ 0F54h ;# 
   665  0000                     # 1908 "/opt/microchip/xc8/v2.00/pic/include/pic18f26k22.h"
   666                           CCPR5 equ 0F55h ;# 
   667  0000                     # 1915 "/opt/microchip/xc8/v2.00/pic/include/pic18f26k22.h"
   668                           CCPR5L equ 0F55h ;# 
   669  0000                     # 1935 "/opt/microchip/xc8/v2.00/pic/include/pic18f26k22.h"
   670                           CCPR5H equ 0F56h ;# 
   671  0000                     # 1955 "/opt/microchip/xc8/v2.00/pic/include/pic18f26k22.h"
   672                           CCP4CON equ 0F57h ;# 
   673  0000                     # 2019 "/opt/microchip/xc8/v2.00/pic/include/pic18f26k22.h"
   674                           CCPR4 equ 0F58h ;# 
   675  0000                     # 2026 "/opt/microchip/xc8/v2.00/pic/include/pic18f26k22.h"
   676                           CCPR4L equ 0F58h ;# 
   677  0000                     # 2046 "/opt/microchip/xc8/v2.00/pic/include/pic18f26k22.h"
   678                           CCPR4H equ 0F59h ;# 
   679  0000                     # 2066 "/opt/microchip/xc8/v2.00/pic/include/pic18f26k22.h"
   680                           PSTR3CON equ 0F5Ah ;# 
   681  0000                     # 2142 "/opt/microchip/xc8/v2.00/pic/include/pic18f26k22.h"
   682                           ECCP3AS equ 0F5Bh ;# 
   683  0000                     # 2147 "/opt/microchip/xc8/v2.00/pic/include/pic18f26k22.h"
   684                           CCP3AS equ 0F5Bh ;# 
   685  0000                     # 2384 "/opt/microchip/xc8/v2.00/pic/include/pic18f26k22.h"
   686                           PWM3CON equ 0F5Ch ;# 
   687  0000                     # 2454 "/opt/microchip/xc8/v2.00/pic/include/pic18f26k22.h"
   688                           CCP3CON equ 0F5Dh ;# 
   689  0000                     # 2536 "/opt/microchip/xc8/v2.00/pic/include/pic18f26k22.h"
   690                           CCPR3 equ 0F5Eh ;# 
   691  0000                     # 2543 "/opt/microchip/xc8/v2.00/pic/include/pic18f26k22.h"
   692                           CCPR3L equ 0F5Eh ;# 
   693  0000                     # 2563 "/opt/microchip/xc8/v2.00/pic/include/pic18f26k22.h"
   694                           CCPR3H equ 0F5Fh ;# 
   695  0000                     # 2583 "/opt/microchip/xc8/v2.00/pic/include/pic18f26k22.h"
   696                           SLRCON equ 0F60h ;# 
   697  0000                     # 2615 "/opt/microchip/xc8/v2.00/pic/include/pic18f26k22.h"
   698                           WPUB equ 0F61h ;# 
   699  0000                     # 2677 "/opt/microchip/xc8/v2.00/pic/include/pic18f26k22.h"
   700                           IOCB equ 0F62h ;# 
   701  0000                     # 2716 "/opt/microchip/xc8/v2.00/pic/include/pic18f26k22.h"
   702                           PSTR2CON equ 0F63h ;# 
   703  0000                     # 2856 "/opt/microchip/xc8/v2.00/pic/include/pic18f26k22.h"
   704                           ECCP2AS equ 0F64h ;# 
   705  0000                     # 2861 "/opt/microchip/xc8/v2.00/pic/include/pic18f26k22.h"
   706                           CCP2AS equ 0F64h ;# 
   707  0000                     # 3098 "/opt/microchip/xc8/v2.00/pic/include/pic18f26k22.h"
   708                           PWM2CON equ 0F65h ;# 
   709  0000                     # 3168 "/opt/microchip/xc8/v2.00/pic/include/pic18f26k22.h"
   710                           CCP2CON equ 0F66h ;# 
   711  0000                     # 3250 "/opt/microchip/xc8/v2.00/pic/include/pic18f26k22.h"
   712                           CCPR2 equ 0F67h ;# 
   713  0000                     # 3257 "/opt/microchip/xc8/v2.00/pic/include/pic18f26k22.h"
   714                           CCPR2L equ 0F67h ;# 
   715  0000                     # 3277 "/opt/microchip/xc8/v2.00/pic/include/pic18f26k22.h"
   716                           CCPR2H equ 0F68h ;# 
   717  0000                     # 3297 "/opt/microchip/xc8/v2.00/pic/include/pic18f26k22.h"
   718                           SSP2CON3 equ 0F69h ;# 
   719  0000                     # 3359 "/opt/microchip/xc8/v2.00/pic/include/pic18f26k22.h"
   720                           SSP2MSK equ 0F6Ah ;# 
   721  0000                     # 3429 "/opt/microchip/xc8/v2.00/pic/include/pic18f26k22.h"
   722                           SSP2CON2 equ 0F6Bh ;# 
   723  0000                     # 3574 "/opt/microchip/xc8/v2.00/pic/include/pic18f26k22.h"
   724                           SSP2CON1 equ 0F6Ch ;# 
   725  0000                     # 3694 "/opt/microchip/xc8/v2.00/pic/include/pic18f26k22.h"
   726                           SSP2STAT equ 0F6Dh ;# 
   727  0000                     # 4094 "/opt/microchip/xc8/v2.00/pic/include/pic18f26k22.h"
   728                           SSP2ADD equ 0F6Eh ;# 
   729  0000                     # 4164 "/opt/microchip/xc8/v2.00/pic/include/pic18f26k22.h"
   730                           SSP2BUF equ 0F6Fh ;# 
   731  0000                     # 4184 "/opt/microchip/xc8/v2.00/pic/include/pic18f26k22.h"
   732                           BAUDCON2 equ 0F70h ;# 
   733  0000                     # 4189 "/opt/microchip/xc8/v2.00/pic/include/pic18f26k22.h"
   734                           BAUD2CON equ 0F70h ;# 
   735  0000                     # 4446 "/opt/microchip/xc8/v2.00/pic/include/pic18f26k22.h"
   736                           RCSTA2 equ 0F71h ;# 
   737  0000                     # 4451 "/opt/microchip/xc8/v2.00/pic/include/pic18f26k22.h"
   738                           RC2STA equ 0F71h ;# 
   739  0000                     # 4734 "/opt/microchip/xc8/v2.00/pic/include/pic18f26k22.h"
   740                           TXSTA2 equ 0F72h ;# 
   741  0000                     # 4739 "/opt/microchip/xc8/v2.00/pic/include/pic18f26k22.h"
   742                           TX2STA equ 0F72h ;# 
   743  0000                     # 4986 "/opt/microchip/xc8/v2.00/pic/include/pic18f26k22.h"
   744                           TXREG2 equ 0F73h ;# 
   745  0000                     # 4991 "/opt/microchip/xc8/v2.00/pic/include/pic18f26k22.h"
   746                           TX2REG equ 0F73h ;# 
   747  0000                     # 5024 "/opt/microchip/xc8/v2.00/pic/include/pic18f26k22.h"
   748                           RCREG2 equ 0F74h ;# 
   749  0000                     # 5029 "/opt/microchip/xc8/v2.00/pic/include/pic18f26k22.h"
   750                           RC2REG equ 0F74h ;# 
   751  0000                     # 5062 "/opt/microchip/xc8/v2.00/pic/include/pic18f26k22.h"
   752                           SPBRG2 equ 0F75h ;# 
   753  0000                     # 5067 "/opt/microchip/xc8/v2.00/pic/include/pic18f26k22.h"
   754                           SP2BRG equ 0F75h ;# 
   755  0000                     # 5100 "/opt/microchip/xc8/v2.00/pic/include/pic18f26k22.h"
   756                           SPBRGH2 equ 0F76h ;# 
   757  0000                     # 5105 "/opt/microchip/xc8/v2.00/pic/include/pic18f26k22.h"
   758                           SP2BRGH equ 0F76h ;# 
   759  0000                     # 5138 "/opt/microchip/xc8/v2.00/pic/include/pic18f26k22.h"
   760                           CM2CON1 equ 0F77h ;# 
   761  0000                     # 5143 "/opt/microchip/xc8/v2.00/pic/include/pic18f26k22.h"
   762                           CM12CON equ 0F77h ;# 
   763  0000                     # 5260 "/opt/microchip/xc8/v2.00/pic/include/pic18f26k22.h"
   764                           CM2CON0 equ 0F78h ;# 
   765  0000                     # 5265 "/opt/microchip/xc8/v2.00/pic/include/pic18f26k22.h"
   766                           CM2CON equ 0F78h ;# 
   767  0000                     # 5540 "/opt/microchip/xc8/v2.00/pic/include/pic18f26k22.h"
   768                           CM1CON0 equ 0F79h ;# 
   769  0000                     # 5545 "/opt/microchip/xc8/v2.00/pic/include/pic18f26k22.h"
   770                           CM1CON equ 0F79h ;# 
   771  0000                     # 5962 "/opt/microchip/xc8/v2.00/pic/include/pic18f26k22.h"
   772                           PIE4 equ 0F7Ah ;# 
   773  0000                     # 5994 "/opt/microchip/xc8/v2.00/pic/include/pic18f26k22.h"
   774                           PIR4 equ 0F7Bh ;# 
   775  0000                     # 6026 "/opt/microchip/xc8/v2.00/pic/include/pic18f26k22.h"
   776                           IPR4 equ 0F7Ch ;# 
   777  0000                     # 6066 "/opt/microchip/xc8/v2.00/pic/include/pic18f26k22.h"
   778                           PIE5 equ 0F7Dh ;# 
   779  0000                     # 6098 "/opt/microchip/xc8/v2.00/pic/include/pic18f26k22.h"
   780                           PIR5 equ 0F7Eh ;# 
   781  0000                     # 6130 "/opt/microchip/xc8/v2.00/pic/include/pic18f26k22.h"
   782                           IPR5 equ 0F7Fh ;# 
   783  0000                     # 6176 "/opt/microchip/xc8/v2.00/pic/include/pic18f26k22.h"
   784                           PORTA equ 0F80h ;# 
   785  0000                     # 6467 "/opt/microchip/xc8/v2.00/pic/include/pic18f26k22.h"
   786                           PORTB equ 0F81h ;# 
   787  0000                     # 6840 "/opt/microchip/xc8/v2.00/pic/include/pic18f26k22.h"
   788                           PORTC equ 0F82h ;# 
   789  0000                     # 7171 "/opt/microchip/xc8/v2.00/pic/include/pic18f26k22.h"
   790                           PORTE equ 0F84h ;# 
   791  0000                     # 7246 "/opt/microchip/xc8/v2.00/pic/include/pic18f26k22.h"
   792                           LATA equ 0F89h ;# 
   793  0000                     # 7358 "/opt/microchip/xc8/v2.00/pic/include/pic18f26k22.h"
   794                           LATB equ 0F8Ah ;# 
   795  0000                     # 7470 "/opt/microchip/xc8/v2.00/pic/include/pic18f26k22.h"
   796                           LATC equ 0F8Bh ;# 
   797  0000                     # 7582 "/opt/microchip/xc8/v2.00/pic/include/pic18f26k22.h"
   798                           TRISA equ 0F92h ;# 
   799  0000                     # 7587 "/opt/microchip/xc8/v2.00/pic/include/pic18f26k22.h"
   800                           DDRA equ 0F92h ;# 
   801  0000                     # 7804 "/opt/microchip/xc8/v2.00/pic/include/pic18f26k22.h"
   802                           TRISB equ 0F93h ;# 
   803  0000                     # 7809 "/opt/microchip/xc8/v2.00/pic/include/pic18f26k22.h"
   804                           DDRB equ 0F93h ;# 
   805  0000                     # 8026 "/opt/microchip/xc8/v2.00/pic/include/pic18f26k22.h"
   806                           TRISC equ 0F94h ;# 
   807  0000                     # 8031 "/opt/microchip/xc8/v2.00/pic/include/pic18f26k22.h"
   808                           DDRC equ 0F94h ;# 
   809  0000                     # 8248 "/opt/microchip/xc8/v2.00/pic/include/pic18f26k22.h"
   810                           TRISE equ 0F96h ;# 
   811  0000                     # 8269 "/opt/microchip/xc8/v2.00/pic/include/pic18f26k22.h"
   812                           OSCTUNE equ 0F9Bh ;# 
   813  0000                     # 8339 "/opt/microchip/xc8/v2.00/pic/include/pic18f26k22.h"
   814                           HLVDCON equ 0F9Ch ;# 
   815  0000                     # 8344 "/opt/microchip/xc8/v2.00/pic/include/pic18f26k22.h"
   816                           LVDCON equ 0F9Ch ;# 
   817  0000                     # 8619 "/opt/microchip/xc8/v2.00/pic/include/pic18f26k22.h"
   818                           PIE1 equ 0F9Dh ;# 
   819  0000                     # 8696 "/opt/microchip/xc8/v2.00/pic/include/pic18f26k22.h"
   820                           PIR1 equ 0F9Eh ;# 
   821  0000                     # 8773 "/opt/microchip/xc8/v2.00/pic/include/pic18f26k22.h"
   822                           IPR1 equ 0F9Fh ;# 
   823  0000                     # 8850 "/opt/microchip/xc8/v2.00/pic/include/pic18f26k22.h"
   824                           PIE2 equ 0FA0h ;# 
   825  0000                     # 8936 "/opt/microchip/xc8/v2.00/pic/include/pic18f26k22.h"
   826                           PIR2 equ 0FA1h ;# 
   827  0000                     # 9022 "/opt/microchip/xc8/v2.00/pic/include/pic18f26k22.h"
   828                           IPR2 equ 0FA2h ;# 
   829  0000                     # 9108 "/opt/microchip/xc8/v2.00/pic/include/pic18f26k22.h"
   830                           PIE3 equ 0FA3h ;# 
   831  0000                     # 9218 "/opt/microchip/xc8/v2.00/pic/include/pic18f26k22.h"
   832                           PIR3 equ 0FA4h ;# 
   833  0000                     # 9296 "/opt/microchip/xc8/v2.00/pic/include/pic18f26k22.h"
   834                           IPR3 equ 0FA5h ;# 
   835  0000                     # 9374 "/opt/microchip/xc8/v2.00/pic/include/pic18f26k22.h"
   836                           EECON1 equ 0FA6h ;# 
   837  0000                     # 9440 "/opt/microchip/xc8/v2.00/pic/include/pic18f26k22.h"
   838                           EECON2 equ 0FA7h ;# 
   839  0000                     # 9460 "/opt/microchip/xc8/v2.00/pic/include/pic18f26k22.h"
   840                           EEDATA equ 0FA8h ;# 
   841  0000                     # 9480 "/opt/microchip/xc8/v2.00/pic/include/pic18f26k22.h"
   842                           EEADR equ 0FA9h ;# 
   843  0000                     # 9550 "/opt/microchip/xc8/v2.00/pic/include/pic18f26k22.h"
   844                           EEADRH equ 0FAAh ;# 
   845  0000                     # 9584 "/opt/microchip/xc8/v2.00/pic/include/pic18f26k22.h"
   846                           RCSTA1 equ 0FABh ;# 
   847  0000                     # 9589 "/opt/microchip/xc8/v2.00/pic/include/pic18f26k22.h"
   848                           RCSTA equ 0FABh ;# 
   849  0000                     # 9593 "/opt/microchip/xc8/v2.00/pic/include/pic18f26k22.h"
   850                           RC1STA equ 0FABh ;# 
   851  0000                     # 10040 "/opt/microchip/xc8/v2.00/pic/include/pic18f26k22.h"
   852                           TXSTA1 equ 0FACh ;# 
   853  0000                     # 10045 "/opt/microchip/xc8/v2.00/pic/include/pic18f26k22.h"
   854                           TXSTA equ 0FACh ;# 
   855  0000                     # 10049 "/opt/microchip/xc8/v2.00/pic/include/pic18f26k22.h"
   856                           TX1STA equ 0FACh ;# 
   857  0000                     # 10415 "/opt/microchip/xc8/v2.00/pic/include/pic18f26k22.h"
   858                           TXREG1 equ 0FADh ;# 
   859  0000                     # 10420 "/opt/microchip/xc8/v2.00/pic/include/pic18f26k22.h"
   860                           TXREG equ 0FADh ;# 
   861  0000                     # 10424 "/opt/microchip/xc8/v2.00/pic/include/pic18f26k22.h"
   862                           TX1REG equ 0FADh ;# 
   863  0000                     # 10493 "/opt/microchip/xc8/v2.00/pic/include/pic18f26k22.h"
   864                           RCREG1 equ 0FAEh ;# 
   865  0000                     # 10498 "/opt/microchip/xc8/v2.00/pic/include/pic18f26k22.h"
   866                           RCREG equ 0FAEh ;# 
   867  0000                     # 10502 "/opt/microchip/xc8/v2.00/pic/include/pic18f26k22.h"
   868                           RC1REG equ 0FAEh ;# 
   869  0000                     # 10571 "/opt/microchip/xc8/v2.00/pic/include/pic18f26k22.h"
   870                           SPBRG1 equ 0FAFh ;# 
   871  0000                     # 10576 "/opt/microchip/xc8/v2.00/pic/include/pic18f26k22.h"
   872                           SPBRG equ 0FAFh ;# 
   873  0000                     # 10580 "/opt/microchip/xc8/v2.00/pic/include/pic18f26k22.h"
   874                           SP1BRG equ 0FAFh ;# 
   875  0000                     # 10649 "/opt/microchip/xc8/v2.00/pic/include/pic18f26k22.h"
   876                           SPBRGH1 equ 0FB0h ;# 
   877  0000                     # 10654 "/opt/microchip/xc8/v2.00/pic/include/pic18f26k22.h"
   878                           SPBRGH equ 0FB0h ;# 
   879  0000                     # 10658 "/opt/microchip/xc8/v2.00/pic/include/pic18f26k22.h"
   880                           SP1BRGH equ 0FB0h ;# 
   881  0000                     # 10727 "/opt/microchip/xc8/v2.00/pic/include/pic18f26k22.h"
   882                           T3CON equ 0FB1h ;# 
   883  0000                     # 10835 "/opt/microchip/xc8/v2.00/pic/include/pic18f26k22.h"
   884                           TMR3 equ 0FB2h ;# 
   885  0000                     # 10842 "/opt/microchip/xc8/v2.00/pic/include/pic18f26k22.h"
   886                           TMR3L equ 0FB2h ;# 
   887  0000                     # 10862 "/opt/microchip/xc8/v2.00/pic/include/pic18f26k22.h"
   888                           TMR3H equ 0FB3h ;# 
   889  0000                     # 10882 "/opt/microchip/xc8/v2.00/pic/include/pic18f26k22.h"
   890                           T3GCON equ 0FB4h ;# 
   891  0000                     # 10977 "/opt/microchip/xc8/v2.00/pic/include/pic18f26k22.h"
   892                           ECCP1AS equ 0FB6h ;# 
   893  0000                     # 10982 "/opt/microchip/xc8/v2.00/pic/include/pic18f26k22.h"
   894                           ECCPAS equ 0FB6h ;# 
   895  0000                     # 11359 "/opt/microchip/xc8/v2.00/pic/include/pic18f26k22.h"
   896                           PWM1CON equ 0FB7h ;# 
   897  0000                     # 11364 "/opt/microchip/xc8/v2.00/pic/include/pic18f26k22.h"
   898                           PWMCON equ 0FB7h ;# 
   899  0000                     # 11613 "/opt/microchip/xc8/v2.00/pic/include/pic18f26k22.h"
   900                           BAUDCON1 equ 0FB8h ;# 
   901  0000                     # 11618 "/opt/microchip/xc8/v2.00/pic/include/pic18f26k22.h"
   902                           BAUDCON equ 0FB8h ;# 
   903  0000                     # 11622 "/opt/microchip/xc8/v2.00/pic/include/pic18f26k22.h"
   904                           BAUDCTL equ 0FB8h ;# 
   905  0000                     # 11626 "/opt/microchip/xc8/v2.00/pic/include/pic18f26k22.h"
   906                           BAUD1CON equ 0FB8h ;# 
   907  0000                     # 12287 "/opt/microchip/xc8/v2.00/pic/include/pic18f26k22.h"
   908                           PSTR1CON equ 0FB9h ;# 
   909  0000                     # 12292 "/opt/microchip/xc8/v2.00/pic/include/pic18f26k22.h"
   910                           PSTRCON equ 0FB9h ;# 
   911  0000                     # 12437 "/opt/microchip/xc8/v2.00/pic/include/pic18f26k22.h"
   912                           T2CON equ 0FBAh ;# 
   913  0000                     # 12508 "/opt/microchip/xc8/v2.00/pic/include/pic18f26k22.h"
   914                           PR2 equ 0FBBh ;# 
   915  0000                     # 12528 "/opt/microchip/xc8/v2.00/pic/include/pic18f26k22.h"
   916                           TMR2 equ 0FBCh ;# 
   917  0000                     # 12548 "/opt/microchip/xc8/v2.00/pic/include/pic18f26k22.h"
   918                           CCP1CON equ 0FBDh ;# 
   919  0000                     # 12630 "/opt/microchip/xc8/v2.00/pic/include/pic18f26k22.h"
   920                           CCPR1 equ 0FBEh ;# 
   921  0000                     # 12637 "/opt/microchip/xc8/v2.00/pic/include/pic18f26k22.h"
   922                           CCPR1L equ 0FBEh ;# 
   923  0000                     # 12657 "/opt/microchip/xc8/v2.00/pic/include/pic18f26k22.h"
   924                           CCPR1H equ 0FBFh ;# 
   925  0000                     # 12677 "/opt/microchip/xc8/v2.00/pic/include/pic18f26k22.h"
   926                           ADCON2 equ 0FC0h ;# 
   927  0000                     # 12748 "/opt/microchip/xc8/v2.00/pic/include/pic18f26k22.h"
   928                           ADCON1 equ 0FC1h ;# 
   929  0000                     # 12816 "/opt/microchip/xc8/v2.00/pic/include/pic18f26k22.h"
   930                           ADCON0 equ 0FC2h ;# 
   931  0000                     # 12941 "/opt/microchip/xc8/v2.00/pic/include/pic18f26k22.h"
   932                           ADRES equ 0FC3h ;# 
   933  0000                     # 12948 "/opt/microchip/xc8/v2.00/pic/include/pic18f26k22.h"
   934                           ADRESL equ 0FC3h ;# 
   935  0000                     # 12968 "/opt/microchip/xc8/v2.00/pic/include/pic18f26k22.h"
   936                           ADRESH equ 0FC4h ;# 
   937  0000                     # 12988 "/opt/microchip/xc8/v2.00/pic/include/pic18f26k22.h"
   938                           SSP1CON2 equ 0FC5h ;# 
   939  0000                     # 12993 "/opt/microchip/xc8/v2.00/pic/include/pic18f26k22.h"
   940                           SSPCON2 equ 0FC5h ;# 
   941  0000                     # 13342 "/opt/microchip/xc8/v2.00/pic/include/pic18f26k22.h"
   942                           SSP1CON1 equ 0FC6h ;# 
   943  0000                     # 13347 "/opt/microchip/xc8/v2.00/pic/include/pic18f26k22.h"
   944                           SSPCON1 equ 0FC6h ;# 
   945  0000                     # 13580 "/opt/microchip/xc8/v2.00/pic/include/pic18f26k22.h"
   946                           SSP1STAT equ 0FC7h ;# 
   947  0000                     # 13585 "/opt/microchip/xc8/v2.00/pic/include/pic18f26k22.h"
   948                           SSPSTAT equ 0FC7h ;# 
   949  0000                     # 14210 "/opt/microchip/xc8/v2.00/pic/include/pic18f26k22.h"
   950                           SSP1ADD equ 0FC8h ;# 
   951  0000                     # 14215 "/opt/microchip/xc8/v2.00/pic/include/pic18f26k22.h"
   952                           SSPADD equ 0FC8h ;# 
   953  0000                     # 14464 "/opt/microchip/xc8/v2.00/pic/include/pic18f26k22.h"
   954                           SSP1BUF equ 0FC9h ;# 
   955  0000                     # 14469 "/opt/microchip/xc8/v2.00/pic/include/pic18f26k22.h"
   956                           SSPBUF equ 0FC9h ;# 
   957  0000                     # 14518 "/opt/microchip/xc8/v2.00/pic/include/pic18f26k22.h"
   958                           SSP1MSK equ 0FCAh ;# 
   959  0000                     # 14523 "/opt/microchip/xc8/v2.00/pic/include/pic18f26k22.h"
   960                           SSPMSK equ 0FCAh ;# 
   961  0000                     # 14656 "/opt/microchip/xc8/v2.00/pic/include/pic18f26k22.h"
   962                           SSP1CON3 equ 0FCBh ;# 
   963  0000                     # 14661 "/opt/microchip/xc8/v2.00/pic/include/pic18f26k22.h"
   964                           SSPCON3 equ 0FCBh ;# 
   965  0000                     # 14778 "/opt/microchip/xc8/v2.00/pic/include/pic18f26k22.h"
   966                           T1GCON equ 0FCCh ;# 
   967  0000                     # 14873 "/opt/microchip/xc8/v2.00/pic/include/pic18f26k22.h"
   968                           T1CON equ 0FCDh ;# 
   969  0000                     # 14986 "/opt/microchip/xc8/v2.00/pic/include/pic18f26k22.h"
   970                           TMR1 equ 0FCEh ;# 
   971  0000                     # 14993 "/opt/microchip/xc8/v2.00/pic/include/pic18f26k22.h"
   972                           TMR1L equ 0FCEh ;# 
   973  0000                     # 15013 "/opt/microchip/xc8/v2.00/pic/include/pic18f26k22.h"
   974                           TMR1H equ 0FCFh ;# 
   975  0000                     # 15033 "/opt/microchip/xc8/v2.00/pic/include/pic18f26k22.h"
   976                           RCON equ 0FD0h ;# 
   977  0000                     # 15166 "/opt/microchip/xc8/v2.00/pic/include/pic18f26k22.h"
   978                           WDTCON equ 0FD1h ;# 
   979  0000                     # 15194 "/opt/microchip/xc8/v2.00/pic/include/pic18f26k22.h"
   980                           OSCCON2 equ 0FD2h ;# 
   981  0000                     # 15251 "/opt/microchip/xc8/v2.00/pic/include/pic18f26k22.h"
   982                           OSCCON equ 0FD3h ;# 
   983  0000                     # 15334 "/opt/microchip/xc8/v2.00/pic/include/pic18f26k22.h"
   984                           T0CON equ 0FD5h ;# 
   985  0000                     # 15404 "/opt/microchip/xc8/v2.00/pic/include/pic18f26k22.h"
   986                           TMR0 equ 0FD6h ;# 
   987  0000                     # 15411 "/opt/microchip/xc8/v2.00/pic/include/pic18f26k22.h"
   988                           TMR0L equ 0FD6h ;# 
   989  0000                     # 15431 "/opt/microchip/xc8/v2.00/pic/include/pic18f26k22.h"
   990                           TMR0H equ 0FD7h ;# 
   991  0000                     # 15451 "/opt/microchip/xc8/v2.00/pic/include/pic18f26k22.h"
   992                           STATUS equ 0FD8h ;# 
   993  0000                     # 15522 "/opt/microchip/xc8/v2.00/pic/include/pic18f26k22.h"
   994                           FSR2 equ 0FD9h ;# 
   995  0000                     # 15529 "/opt/microchip/xc8/v2.00/pic/include/pic18f26k22.h"
   996                           FSR2L equ 0FD9h ;# 
   997  0000                     # 15549 "/opt/microchip/xc8/v2.00/pic/include/pic18f26k22.h"
   998                           FSR2H equ 0FDAh ;# 
   999  0000                     # 15556 "/opt/microchip/xc8/v2.00/pic/include/pic18f26k22.h"
  1000                           PLUSW2 equ 0FDBh ;# 
  1001  0000                     # 15576 "/opt/microchip/xc8/v2.00/pic/include/pic18f26k22.h"
  1002                           PREINC2 equ 0FDCh ;# 
  1003  0000                     # 15596 "/opt/microchip/xc8/v2.00/pic/include/pic18f26k22.h"
  1004                           POSTDEC2 equ 0FDDh ;# 
  1005  0000                     # 15616 "/opt/microchip/xc8/v2.00/pic/include/pic18f26k22.h"
  1006                           POSTINC2 equ 0FDEh ;# 
  1007  0000                     # 15636 "/opt/microchip/xc8/v2.00/pic/include/pic18f26k22.h"
  1008                           INDF2 equ 0FDFh ;# 
  1009  0000                     # 15656 "/opt/microchip/xc8/v2.00/pic/include/pic18f26k22.h"
  1010                           BSR equ 0FE0h ;# 
  1011  0000                     # 15663 "/opt/microchip/xc8/v2.00/pic/include/pic18f26k22.h"
  1012                           FSR1 equ 0FE1h ;# 
  1013  0000                     # 15670 "/opt/microchip/xc8/v2.00/pic/include/pic18f26k22.h"
  1014                           FSR1L equ 0FE1h ;# 
  1015  0000                     # 15690 "/opt/microchip/xc8/v2.00/pic/include/pic18f26k22.h"
  1016                           FSR1H equ 0FE2h ;# 
  1017  0000                     # 15697 "/opt/microchip/xc8/v2.00/pic/include/pic18f26k22.h"
  1018                           PLUSW1 equ 0FE3h ;# 
  1019  0000                     # 15717 "/opt/microchip/xc8/v2.00/pic/include/pic18f26k22.h"
  1020                           PREINC1 equ 0FE4h ;# 
  1021  0000                     # 15737 "/opt/microchip/xc8/v2.00/pic/include/pic18f26k22.h"
  1022                           POSTDEC1 equ 0FE5h ;# 
  1023  0000                     # 15757 "/opt/microchip/xc8/v2.00/pic/include/pic18f26k22.h"
  1024                           POSTINC1 equ 0FE6h ;# 
  1025  0000                     # 15777 "/opt/microchip/xc8/v2.00/pic/include/pic18f26k22.h"
  1026                           INDF1 equ 0FE7h ;# 
  1027  0000                     # 15797 "/opt/microchip/xc8/v2.00/pic/include/pic18f26k22.h"
  1028                           WREG equ 0FE8h ;# 
  1029  0000                     # 15835 "/opt/microchip/xc8/v2.00/pic/include/pic18f26k22.h"
  1030                           FSR0 equ 0FE9h ;# 
  1031  0000                     # 15842 "/opt/microchip/xc8/v2.00/pic/include/pic18f26k22.h"
  1032                           FSR0L equ 0FE9h ;# 
  1033  0000                     # 15862 "/opt/microchip/xc8/v2.00/pic/include/pic18f26k22.h"
  1034                           FSR0H equ 0FEAh ;# 
  1035  0000                     # 15869 "/opt/microchip/xc8/v2.00/pic/include/pic18f26k22.h"
  1036                           PLUSW0 equ 0FEBh ;# 
  1037  0000                     # 15889 "/opt/microchip/xc8/v2.00/pic/include/pic18f26k22.h"
  1038                           PREINC0 equ 0FECh ;# 
  1039  0000                     # 15909 "/opt/microchip/xc8/v2.00/pic/include/pic18f26k22.h"
  1040                           POSTDEC0 equ 0FEDh ;# 
  1041  0000                     # 15929 "/opt/microchip/xc8/v2.00/pic/include/pic18f26k22.h"
  1042                           POSTINC0 equ 0FEEh ;# 
  1043  0000                     # 15949 "/opt/microchip/xc8/v2.00/pic/include/pic18f26k22.h"
  1044                           INDF0 equ 0FEFh ;# 
  1045  0000                     # 15969 "/opt/microchip/xc8/v2.00/pic/include/pic18f26k22.h"
  1046                           INTCON3 equ 0FF0h ;# 
  1047  0000                     # 16061 "/opt/microchip/xc8/v2.00/pic/include/pic18f26k22.h"
  1048                           INTCON2 equ 0FF1h ;# 
  1049  0000                     # 16131 "/opt/microchip/xc8/v2.00/pic/include/pic18f26k22.h"
  1050                           INTCON equ 0FF2h ;# 
  1051  0000                     # 16248 "/opt/microchip/xc8/v2.00/pic/include/pic18f26k22.h"
  1052                           PROD equ 0FF3h ;# 
  1053  0000                     # 16255 "/opt/microchip/xc8/v2.00/pic/include/pic18f26k22.h"
  1054                           PRODL equ 0FF3h ;# 
  1055  0000                     # 16275 "/opt/microchip/xc8/v2.00/pic/include/pic18f26k22.h"
  1056                           PRODH equ 0FF4h ;# 
  1057  0000                     # 16295 "/opt/microchip/xc8/v2.00/pic/include/pic18f26k22.h"
  1058                           TABLAT equ 0FF5h ;# 
  1059  0000                     # 16317 "/opt/microchip/xc8/v2.00/pic/include/pic18f26k22.h"
  1060                           TBLPTR equ 0FF6h ;# 
  1061  0000                     # 16324 "/opt/microchip/xc8/v2.00/pic/include/pic18f26k22.h"
  1062                           TBLPTRL equ 0FF6h ;# 
  1063  0000                     # 16344 "/opt/microchip/xc8/v2.00/pic/include/pic18f26k22.h"
  1064                           TBLPTRH equ 0FF7h ;# 
  1065  0000                     # 16364 "/opt/microchip/xc8/v2.00/pic/include/pic18f26k22.h"
  1066                           TBLPTRU equ 0FF8h ;# 
  1067  0000                     # 16395 "/opt/microchip/xc8/v2.00/pic/include/pic18f26k22.h"
  1068                           PCLAT equ 0FF9h ;# 
  1069  0000                     # 16402 "/opt/microchip/xc8/v2.00/pic/include/pic18f26k22.h"
  1070                           PC equ 0FF9h ;# 
  1071  0000                     # 16409 "/opt/microchip/xc8/v2.00/pic/include/pic18f26k22.h"
  1072                           PCL equ 0FF9h ;# 
  1073  0000                     # 16429 "/opt/microchip/xc8/v2.00/pic/include/pic18f26k22.h"
  1074                           PCLATH equ 0FFAh ;# 
  1075  0000                     # 16449 "/opt/microchip/xc8/v2.00/pic/include/pic18f26k22.h"
  1076                           PCLATU equ 0FFBh ;# 
  1077  0000                     # 16456 "/opt/microchip/xc8/v2.00/pic/include/pic18f26k22.h"
  1078                           STKPTR equ 0FFCh ;# 
  1079  0000                     # 16562 "/opt/microchip/xc8/v2.00/pic/include/pic18f26k22.h"
  1080                           TOS equ 0FFDh ;# 
  1081  0000                     # 16569 "/opt/microchip/xc8/v2.00/pic/include/pic18f26k22.h"
  1082                           TOSL equ 0FFDh ;# 
  1083  0000                     # 16589 "/opt/microchip/xc8/v2.00/pic/include/pic18f26k22.h"
  1084                           TOSH equ 0FFEh ;# 
  1085  0000                     # 16609 "/opt/microchip/xc8/v2.00/pic/include/pic18f26k22.h"
  1086                           TOSU equ 0FFFh ;# 
  1087  0000                     # 54 "/opt/microchip/xc8/v2.00/pic/include/pic18f26k22.h"
  1088                           ANSELA equ 0F38h ;# 
  1089  0000                     # 99 "/opt/microchip/xc8/v2.00/pic/include/pic18f26k22.h"
  1090                           ANSELB equ 0F39h ;# 
  1091  0000                     # 149 "/opt/microchip/xc8/v2.00/pic/include/pic18f26k22.h"
  1092                           ANSELC equ 0F3Ah ;# 
  1093  0000                     # 200 "/opt/microchip/xc8/v2.00/pic/include/pic18f26k22.h"
  1094                           PMD2 equ 0F3Dh ;# 
  1095  0000                     # 238 "/opt/microchip/xc8/v2.00/pic/include/pic18f26k22.h"
  1096                           PMD1 equ 0F3Eh ;# 
  1097  0000                     # 303 "/opt/microchip/xc8/v2.00/pic/include/pic18f26k22.h"
  1098                           PMD0 equ 0F3Fh ;# 
  1099  0000                     # 380 "/opt/microchip/xc8/v2.00/pic/include/pic18f26k22.h"
  1100                           VREFCON2 equ 0F40h ;# 
  1101  0000                     # 385 "/opt/microchip/xc8/v2.00/pic/include/pic18f26k22.h"
  1102                           DACCON1 equ 0F40h ;# 
  1103  0000                     # 482 "/opt/microchip/xc8/v2.00/pic/include/pic18f26k22.h"
  1104                           VREFCON1 equ 0F41h ;# 
  1105  0000                     # 487 "/opt/microchip/xc8/v2.00/pic/include/pic18f26k22.h"
  1106                           DACCON0 equ 0F41h ;# 
  1107  0000                     # 602 "/opt/microchip/xc8/v2.00/pic/include/pic18f26k22.h"
  1108                           VREFCON0 equ 0F42h ;# 
  1109  0000                     # 607 "/opt/microchip/xc8/v2.00/pic/include/pic18f26k22.h"
  1110                           FVRCON equ 0F42h ;# 
  1111  0000                     # 696 "/opt/microchip/xc8/v2.00/pic/include/pic18f26k22.h"
  1112                           CTMUICON equ 0F43h ;# 
  1113  0000                     # 701 "/opt/microchip/xc8/v2.00/pic/include/pic18f26k22.h"
  1114                           CTMUICONH equ 0F43h ;# 
  1115  0000                     # 846 "/opt/microchip/xc8/v2.00/pic/include/pic18f26k22.h"
  1116                           CTMUCONL equ 0F44h ;# 
  1117  0000                     # 851 "/opt/microchip/xc8/v2.00/pic/include/pic18f26k22.h"
  1118                           CTMUCON1 equ 0F44h ;# 
  1119  0000                     # 1000 "/opt/microchip/xc8/v2.00/pic/include/pic18f26k22.h"
  1120                           CTMUCONH equ 0F45h ;# 
  1121  0000                     # 1005 "/opt/microchip/xc8/v2.00/pic/include/pic18f26k22.h"
  1122                           CTMUCON0 equ 0F45h ;# 
  1123  0000                     # 1112 "/opt/microchip/xc8/v2.00/pic/include/pic18f26k22.h"
  1124                           SRCON1 equ 0F46h ;# 
  1125  0000                     # 1174 "/opt/microchip/xc8/v2.00/pic/include/pic18f26k22.h"
  1126                           SRCON0 equ 0F47h ;# 
  1127  0000                     # 1245 "/opt/microchip/xc8/v2.00/pic/include/pic18f26k22.h"
  1128                           CCPTMRS1 equ 0F48h ;# 
  1129  0000                     # 1297 "/opt/microchip/xc8/v2.00/pic/include/pic18f26k22.h"
  1130                           CCPTMRS0 equ 0F49h ;# 
  1131  0000                     # 1371 "/opt/microchip/xc8/v2.00/pic/include/pic18f26k22.h"
  1132                           T6CON equ 0F4Ah ;# 
  1133  0000                     # 1442 "/opt/microchip/xc8/v2.00/pic/include/pic18f26k22.h"
  1134                           PR6 equ 0F4Bh ;# 
  1135  0000                     # 1462 "/opt/microchip/xc8/v2.00/pic/include/pic18f26k22.h"
  1136                           TMR6 equ 0F4Ch ;# 
  1137  0000                     # 1482 "/opt/microchip/xc8/v2.00/pic/include/pic18f26k22.h"
  1138                           T5GCON equ 0F4Dh ;# 
  1139  0000                     # 1577 "/opt/microchip/xc8/v2.00/pic/include/pic18f26k22.h"
  1140                           T5CON equ 0F4Eh ;# 
  1141  0000                     # 1686 "/opt/microchip/xc8/v2.00/pic/include/pic18f26k22.h"
  1142                           TMR5 equ 0F4Fh ;# 
  1143  0000                     # 1693 "/opt/microchip/xc8/v2.00/pic/include/pic18f26k22.h"
  1144                           TMR5L equ 0F4Fh ;# 
  1145  0000                     # 1713 "/opt/microchip/xc8/v2.00/pic/include/pic18f26k22.h"
  1146                           TMR5H equ 0F50h ;# 
  1147  0000                     # 1733 "/opt/microchip/xc8/v2.00/pic/include/pic18f26k22.h"
  1148                           T4CON equ 0F51h ;# 
  1149  0000                     # 1804 "/opt/microchip/xc8/v2.00/pic/include/pic18f26k22.h"
  1150                           PR4 equ 0F52h ;# 
  1151  0000                     # 1824 "/opt/microchip/xc8/v2.00/pic/include/pic18f26k22.h"
  1152                           TMR4 equ 0F53h ;# 
  1153  0000                     # 1844 "/opt/microchip/xc8/v2.00/pic/include/pic18f26k22.h"
  1154                           CCP5CON equ 0F54h ;# 
  1155  0000                     # 1908 "/opt/microchip/xc8/v2.00/pic/include/pic18f26k22.h"
  1156                           CCPR5 equ 0F55h ;# 
  1157  0000                     # 1915 "/opt/microchip/xc8/v2.00/pic/include/pic18f26k22.h"
  1158                           CCPR5L equ 0F55h ;# 
  1159  0000                     # 1935 "/opt/microchip/xc8/v2.00/pic/include/pic18f26k22.h"
  1160                           CCPR5H equ 0F56h ;# 
  1161  0000                     # 1955 "/opt/microchip/xc8/v2.00/pic/include/pic18f26k22.h"
  1162                           CCP4CON equ 0F57h ;# 
  1163  0000                     # 2019 "/opt/microchip/xc8/v2.00/pic/include/pic18f26k22.h"
  1164                           CCPR4 equ 0F58h ;# 
  1165  0000                     # 2026 "/opt/microchip/xc8/v2.00/pic/include/pic18f26k22.h"
  1166                           CCPR4L equ 0F58h ;# 
  1167  0000                     # 2046 "/opt/microchip/xc8/v2.00/pic/include/pic18f26k22.h"
  1168                           CCPR4H equ 0F59h ;# 
  1169  0000                     # 2066 "/opt/microchip/xc8/v2.00/pic/include/pic18f26k22.h"
  1170                           PSTR3CON equ 0F5Ah ;# 
  1171  0000                     # 2142 "/opt/microchip/xc8/v2.00/pic/include/pic18f26k22.h"
  1172                           ECCP3AS equ 0F5Bh ;# 
  1173  0000                     # 2147 "/opt/microchip/xc8/v2.00/pic/include/pic18f26k22.h"
  1174                           CCP3AS equ 0F5Bh ;# 
  1175  0000                     # 2384 "/opt/microchip/xc8/v2.00/pic/include/pic18f26k22.h"
  1176                           PWM3CON equ 0F5Ch ;# 
  1177  0000                     # 2454 "/opt/microchip/xc8/v2.00/pic/include/pic18f26k22.h"
  1178                           CCP3CON equ 0F5Dh ;# 
  1179  0000                     # 2536 "/opt/microchip/xc8/v2.00/pic/include/pic18f26k22.h"
  1180                           CCPR3 equ 0F5Eh ;# 
  1181  0000                     # 2543 "/opt/microchip/xc8/v2.00/pic/include/pic18f26k22.h"
  1182                           CCPR3L equ 0F5Eh ;# 
  1183  0000                     # 2563 "/opt/microchip/xc8/v2.00/pic/include/pic18f26k22.h"
  1184                           CCPR3H equ 0F5Fh ;# 
  1185  0000                     # 2583 "/opt/microchip/xc8/v2.00/pic/include/pic18f26k22.h"
  1186                           SLRCON equ 0F60h ;# 
  1187  0000                     # 2615 "/opt/microchip/xc8/v2.00/pic/include/pic18f26k22.h"
  1188                           WPUB equ 0F61h ;# 
  1189  0000                     # 2677 "/opt/microchip/xc8/v2.00/pic/include/pic18f26k22.h"
  1190                           IOCB equ 0F62h ;# 
  1191  0000                     # 2716 "/opt/microchip/xc8/v2.00/pic/include/pic18f26k22.h"
  1192                           PSTR2CON equ 0F63h ;# 
  1193  0000                     # 2856 "/opt/microchip/xc8/v2.00/pic/include/pic18f26k22.h"
  1194                           ECCP2AS equ 0F64h ;# 
  1195  0000                     # 2861 "/opt/microchip/xc8/v2.00/pic/include/pic18f26k22.h"
  1196                           CCP2AS equ 0F64h ;# 
  1197  0000                     # 3098 "/opt/microchip/xc8/v2.00/pic/include/pic18f26k22.h"
  1198                           PWM2CON equ 0F65h ;# 
  1199  0000                     # 3168 "/opt/microchip/xc8/v2.00/pic/include/pic18f26k22.h"
  1200                           CCP2CON equ 0F66h ;# 
  1201  0000                     # 3250 "/opt/microchip/xc8/v2.00/pic/include/pic18f26k22.h"
  1202                           CCPR2 equ 0F67h ;# 
  1203  0000                     # 3257 "/opt/microchip/xc8/v2.00/pic/include/pic18f26k22.h"
  1204                           CCPR2L equ 0F67h ;# 
  1205  0000                     # 3277 "/opt/microchip/xc8/v2.00/pic/include/pic18f26k22.h"
  1206                           CCPR2H equ 0F68h ;# 
  1207  0000                     # 3297 "/opt/microchip/xc8/v2.00/pic/include/pic18f26k22.h"
  1208                           SSP2CON3 equ 0F69h ;# 
  1209  0000                     # 3359 "/opt/microchip/xc8/v2.00/pic/include/pic18f26k22.h"
  1210                           SSP2MSK equ 0F6Ah ;# 
  1211  0000                     # 3429 "/opt/microchip/xc8/v2.00/pic/include/pic18f26k22.h"
  1212                           SSP2CON2 equ 0F6Bh ;# 
  1213  0000                     # 3574 "/opt/microchip/xc8/v2.00/pic/include/pic18f26k22.h"
  1214                           SSP2CON1 equ 0F6Ch ;# 
  1215  0000                     # 3694 "/opt/microchip/xc8/v2.00/pic/include/pic18f26k22.h"
  1216                           SSP2STAT equ 0F6Dh ;# 
  1217  0000                     # 4094 "/opt/microchip/xc8/v2.00/pic/include/pic18f26k22.h"
  1218                           SSP2ADD equ 0F6Eh ;# 
  1219  0000                     # 4164 "/opt/microchip/xc8/v2.00/pic/include/pic18f26k22.h"
  1220                           SSP2BUF equ 0F6Fh ;# 
  1221  0000                     # 4184 "/opt/microchip/xc8/v2.00/pic/include/pic18f26k22.h"
  1222                           BAUDCON2 equ 0F70h ;# 
  1223  0000                     # 4189 "/opt/microchip/xc8/v2.00/pic/include/pic18f26k22.h"
  1224                           BAUD2CON equ 0F70h ;# 
  1225  0000                     # 4446 "/opt/microchip/xc8/v2.00/pic/include/pic18f26k22.h"
  1226                           RCSTA2 equ 0F71h ;# 
  1227  0000                     # 4451 "/opt/microchip/xc8/v2.00/pic/include/pic18f26k22.h"
  1228                           RC2STA equ 0F71h ;# 
  1229  0000                     # 4734 "/opt/microchip/xc8/v2.00/pic/include/pic18f26k22.h"
  1230                           TXSTA2 equ 0F72h ;# 
  1231  0000                     # 4739 "/opt/microchip/xc8/v2.00/pic/include/pic18f26k22.h"
  1232                           TX2STA equ 0F72h ;# 
  1233  0000                     # 4986 "/opt/microchip/xc8/v2.00/pic/include/pic18f26k22.h"
  1234                           TXREG2 equ 0F73h ;# 
  1235  0000                     # 4991 "/opt/microchip/xc8/v2.00/pic/include/pic18f26k22.h"
  1236                           TX2REG equ 0F73h ;# 
  1237  0000                     # 5024 "/opt/microchip/xc8/v2.00/pic/include/pic18f26k22.h"
  1238                           RCREG2 equ 0F74h ;# 
  1239  0000                     # 5029 "/opt/microchip/xc8/v2.00/pic/include/pic18f26k22.h"
  1240                           RC2REG equ 0F74h ;# 
  1241  0000                     # 5062 "/opt/microchip/xc8/v2.00/pic/include/pic18f26k22.h"
  1242                           SPBRG2 equ 0F75h ;# 
  1243  0000                     # 5067 "/opt/microchip/xc8/v2.00/pic/include/pic18f26k22.h"
  1244                           SP2BRG equ 0F75h ;# 
  1245  0000                     # 5100 "/opt/microchip/xc8/v2.00/pic/include/pic18f26k22.h"
  1246                           SPBRGH2 equ 0F76h ;# 
  1247  0000                     # 5105 "/opt/microchip/xc8/v2.00/pic/include/pic18f26k22.h"
  1248                           SP2BRGH equ 0F76h ;# 
  1249  0000                     # 5138 "/opt/microchip/xc8/v2.00/pic/include/pic18f26k22.h"
  1250                           CM2CON1 equ 0F77h ;# 
  1251  0000                     # 5143 "/opt/microchip/xc8/v2.00/pic/include/pic18f26k22.h"
  1252                           CM12CON equ 0F77h ;# 
  1253  0000                     # 5260 "/opt/microchip/xc8/v2.00/pic/include/pic18f26k22.h"
  1254                           CM2CON0 equ 0F78h ;# 
  1255  0000                     # 5265 "/opt/microchip/xc8/v2.00/pic/include/pic18f26k22.h"
  1256                           CM2CON equ 0F78h ;# 
  1257  0000                     # 5540 "/opt/microchip/xc8/v2.00/pic/include/pic18f26k22.h"
  1258                           CM1CON0 equ 0F79h ;# 
  1259  0000                     # 5545 "/opt/microchip/xc8/v2.00/pic/include/pic18f26k22.h"
  1260                           CM1CON equ 0F79h ;# 
  1261  0000                     # 5962 "/opt/microchip/xc8/v2.00/pic/include/pic18f26k22.h"
  1262                           PIE4 equ 0F7Ah ;# 
  1263  0000                     # 5994 "/opt/microchip/xc8/v2.00/pic/include/pic18f26k22.h"
  1264                           PIR4 equ 0F7Bh ;# 
  1265  0000                     # 6026 "/opt/microchip/xc8/v2.00/pic/include/pic18f26k22.h"
  1266                           IPR4 equ 0F7Ch ;# 
  1267  0000                     # 6066 "/opt/microchip/xc8/v2.00/pic/include/pic18f26k22.h"
  1268                           PIE5 equ 0F7Dh ;# 
  1269  0000                     # 6098 "/opt/microchip/xc8/v2.00/pic/include/pic18f26k22.h"
  1270                           PIR5 equ 0F7Eh ;# 
  1271  0000                     # 6130 "/opt/microchip/xc8/v2.00/pic/include/pic18f26k22.h"
  1272                           IPR5 equ 0F7Fh ;# 
  1273  0000                     # 6176 "/opt/microchip/xc8/v2.00/pic/include/pic18f26k22.h"
  1274                           PORTA equ 0F80h ;# 
  1275  0000                     # 6467 "/opt/microchip/xc8/v2.00/pic/include/pic18f26k22.h"
  1276                           PORTB equ 0F81h ;# 
  1277  0000                     # 6840 "/opt/microchip/xc8/v2.00/pic/include/pic18f26k22.h"
  1278                           PORTC equ 0F82h ;# 
  1279  0000                     # 7171 "/opt/microchip/xc8/v2.00/pic/include/pic18f26k22.h"
  1280                           PORTE equ 0F84h ;# 
  1281  0000                     # 7246 "/opt/microchip/xc8/v2.00/pic/include/pic18f26k22.h"
  1282                           LATA equ 0F89h ;# 
  1283  0000                     # 7358 "/opt/microchip/xc8/v2.00/pic/include/pic18f26k22.h"
  1284                           LATB equ 0F8Ah ;# 
  1285  0000                     # 7470 "/opt/microchip/xc8/v2.00/pic/include/pic18f26k22.h"
  1286                           LATC equ 0F8Bh ;# 
  1287  0000                     # 7582 "/opt/microchip/xc8/v2.00/pic/include/pic18f26k22.h"
  1288                           TRISA equ 0F92h ;# 
  1289  0000                     # 7587 "/opt/microchip/xc8/v2.00/pic/include/pic18f26k22.h"
  1290                           DDRA equ 0F92h ;# 
  1291  0000                     # 7804 "/opt/microchip/xc8/v2.00/pic/include/pic18f26k22.h"
  1292                           TRISB equ 0F93h ;# 
  1293  0000                     # 7809 "/opt/microchip/xc8/v2.00/pic/include/pic18f26k22.h"
  1294                           DDRB equ 0F93h ;# 
  1295  0000                     # 8026 "/opt/microchip/xc8/v2.00/pic/include/pic18f26k22.h"
  1296                           TRISC equ 0F94h ;# 
  1297  0000                     # 8031 "/opt/microchip/xc8/v2.00/pic/include/pic18f26k22.h"
  1298                           DDRC equ 0F94h ;# 
  1299  0000                     # 8248 "/opt/microchip/xc8/v2.00/pic/include/pic18f26k22.h"
  1300                           TRISE equ 0F96h ;# 
  1301  0000                     # 8269 "/opt/microchip/xc8/v2.00/pic/include/pic18f26k22.h"
  1302                           OSCTUNE equ 0F9Bh ;# 
  1303  0000                     # 8339 "/opt/microchip/xc8/v2.00/pic/include/pic18f26k22.h"
  1304                           HLVDCON equ 0F9Ch ;# 
  1305  0000                     # 8344 "/opt/microchip/xc8/v2.00/pic/include/pic18f26k22.h"
  1306                           LVDCON equ 0F9Ch ;# 
  1307  0000                     # 8619 "/opt/microchip/xc8/v2.00/pic/include/pic18f26k22.h"
  1308                           PIE1 equ 0F9Dh ;# 
  1309  0000                     # 8696 "/opt/microchip/xc8/v2.00/pic/include/pic18f26k22.h"
  1310                           PIR1 equ 0F9Eh ;# 
  1311  0000                     # 8773 "/opt/microchip/xc8/v2.00/pic/include/pic18f26k22.h"
  1312                           IPR1 equ 0F9Fh ;# 
  1313  0000                     # 8850 "/opt/microchip/xc8/v2.00/pic/include/pic18f26k22.h"
  1314                           PIE2 equ 0FA0h ;# 
  1315  0000                     # 8936 "/opt/microchip/xc8/v2.00/pic/include/pic18f26k22.h"
  1316                           PIR2 equ 0FA1h ;# 
  1317  0000                     # 9022 "/opt/microchip/xc8/v2.00/pic/include/pic18f26k22.h"
  1318                           IPR2 equ 0FA2h ;# 
  1319  0000                     # 9108 "/opt/microchip/xc8/v2.00/pic/include/pic18f26k22.h"
  1320                           PIE3 equ 0FA3h ;# 
  1321  0000                     # 9218 "/opt/microchip/xc8/v2.00/pic/include/pic18f26k22.h"
  1322                           PIR3 equ 0FA4h ;# 
  1323  0000                     # 9296 "/opt/microchip/xc8/v2.00/pic/include/pic18f26k22.h"
  1324                           IPR3 equ 0FA5h ;# 
  1325  0000                     # 9374 "/opt/microchip/xc8/v2.00/pic/include/pic18f26k22.h"
  1326                           EECON1 equ 0FA6h ;# 
  1327  0000                     # 9440 "/opt/microchip/xc8/v2.00/pic/include/pic18f26k22.h"
  1328                           EECON2 equ 0FA7h ;# 
  1329  0000                     # 9460 "/opt/microchip/xc8/v2.00/pic/include/pic18f26k22.h"
  1330                           EEDATA equ 0FA8h ;# 
  1331  0000                     # 9480 "/opt/microchip/xc8/v2.00/pic/include/pic18f26k22.h"
  1332                           EEADR equ 0FA9h ;# 
  1333  0000                     # 9550 "/opt/microchip/xc8/v2.00/pic/include/pic18f26k22.h"
  1334                           EEADRH equ 0FAAh ;# 
  1335  0000                     # 9584 "/opt/microchip/xc8/v2.00/pic/include/pic18f26k22.h"
  1336                           RCSTA1 equ 0FABh ;# 
  1337  0000                     # 9589 "/opt/microchip/xc8/v2.00/pic/include/pic18f26k22.h"
  1338                           RCSTA equ 0FABh ;# 
  1339  0000                     # 9593 "/opt/microchip/xc8/v2.00/pic/include/pic18f26k22.h"
  1340                           RC1STA equ 0FABh ;# 
  1341  0000                     # 10040 "/opt/microchip/xc8/v2.00/pic/include/pic18f26k22.h"
  1342                           TXSTA1 equ 0FACh ;# 
  1343  0000                     # 10045 "/opt/microchip/xc8/v2.00/pic/include/pic18f26k22.h"
  1344                           TXSTA equ 0FACh ;# 
  1345  0000                     # 10049 "/opt/microchip/xc8/v2.00/pic/include/pic18f26k22.h"
  1346                           TX1STA equ 0FACh ;# 
  1347  0000                     # 10415 "/opt/microchip/xc8/v2.00/pic/include/pic18f26k22.h"
  1348                           TXREG1 equ 0FADh ;# 
  1349  0000                     # 10420 "/opt/microchip/xc8/v2.00/pic/include/pic18f26k22.h"
  1350                           TXREG equ 0FADh ;# 
  1351  0000                     # 10424 "/opt/microchip/xc8/v2.00/pic/include/pic18f26k22.h"
  1352                           TX1REG equ 0FADh ;# 
  1353  0000                     # 10493 "/opt/microchip/xc8/v2.00/pic/include/pic18f26k22.h"
  1354                           RCREG1 equ 0FAEh ;# 
  1355  0000                     # 10498 "/opt/microchip/xc8/v2.00/pic/include/pic18f26k22.h"
  1356                           RCREG equ 0FAEh ;# 
  1357  0000                     # 10502 "/opt/microchip/xc8/v2.00/pic/include/pic18f26k22.h"
  1358                           RC1REG equ 0FAEh ;# 
  1359  0000                     # 10571 "/opt/microchip/xc8/v2.00/pic/include/pic18f26k22.h"
  1360                           SPBRG1 equ 0FAFh ;# 
  1361  0000                     # 10576 "/opt/microchip/xc8/v2.00/pic/include/pic18f26k22.h"
  1362                           SPBRG equ 0FAFh ;# 
  1363  0000                     # 10580 "/opt/microchip/xc8/v2.00/pic/include/pic18f26k22.h"
  1364                           SP1BRG equ 0FAFh ;# 
  1365  0000                     # 10649 "/opt/microchip/xc8/v2.00/pic/include/pic18f26k22.h"
  1366                           SPBRGH1 equ 0FB0h ;# 
  1367  0000                     # 10654 "/opt/microchip/xc8/v2.00/pic/include/pic18f26k22.h"
  1368                           SPBRGH equ 0FB0h ;# 
  1369  0000                     # 10658 "/opt/microchip/xc8/v2.00/pic/include/pic18f26k22.h"
  1370                           SP1BRGH equ 0FB0h ;# 
  1371  0000                     # 10727 "/opt/microchip/xc8/v2.00/pic/include/pic18f26k22.h"
  1372                           T3CON equ 0FB1h ;# 
  1373  0000                     # 10835 "/opt/microchip/xc8/v2.00/pic/include/pic18f26k22.h"
  1374                           TMR3 equ 0FB2h ;# 
  1375  0000                     # 10842 "/opt/microchip/xc8/v2.00/pic/include/pic18f26k22.h"
  1376                           TMR3L equ 0FB2h ;# 
  1377  0000                     # 10862 "/opt/microchip/xc8/v2.00/pic/include/pic18f26k22.h"
  1378                           TMR3H equ 0FB3h ;# 
  1379  0000                     # 10882 "/opt/microchip/xc8/v2.00/pic/include/pic18f26k22.h"
  1380                           T3GCON equ 0FB4h ;# 
  1381  0000                     # 10977 "/opt/microchip/xc8/v2.00/pic/include/pic18f26k22.h"
  1382                           ECCP1AS equ 0FB6h ;# 
  1383  0000                     # 10982 "/opt/microchip/xc8/v2.00/pic/include/pic18f26k22.h"
  1384                           ECCPAS equ 0FB6h ;# 
  1385  0000                     # 11359 "/opt/microchip/xc8/v2.00/pic/include/pic18f26k22.h"
  1386                           PWM1CON equ 0FB7h ;# 
  1387  0000                     # 11364 "/opt/microchip/xc8/v2.00/pic/include/pic18f26k22.h"
  1388                           PWMCON equ 0FB7h ;# 
  1389  0000                     # 11613 "/opt/microchip/xc8/v2.00/pic/include/pic18f26k22.h"
  1390                           BAUDCON1 equ 0FB8h ;# 
  1391  0000                     # 11618 "/opt/microchip/xc8/v2.00/pic/include/pic18f26k22.h"
  1392                           BAUDCON equ 0FB8h ;# 
  1393  0000                     # 11622 "/opt/microchip/xc8/v2.00/pic/include/pic18f26k22.h"
  1394                           BAUDCTL equ 0FB8h ;# 
  1395  0000                     # 11626 "/opt/microchip/xc8/v2.00/pic/include/pic18f26k22.h"
  1396                           BAUD1CON equ 0FB8h ;# 
  1397  0000                     # 12287 "/opt/microchip/xc8/v2.00/pic/include/pic18f26k22.h"
  1398                           PSTR1CON equ 0FB9h ;# 
  1399  0000                     # 12292 "/opt/microchip/xc8/v2.00/pic/include/pic18f26k22.h"
  1400                           PSTRCON equ 0FB9h ;# 
  1401  0000                     # 12437 "/opt/microchip/xc8/v2.00/pic/include/pic18f26k22.h"
  1402                           T2CON equ 0FBAh ;# 
  1403  0000                     # 12508 "/opt/microchip/xc8/v2.00/pic/include/pic18f26k22.h"
  1404                           PR2 equ 0FBBh ;# 
  1405  0000                     # 12528 "/opt/microchip/xc8/v2.00/pic/include/pic18f26k22.h"
  1406                           TMR2 equ 0FBCh ;# 
  1407  0000                     # 12548 "/opt/microchip/xc8/v2.00/pic/include/pic18f26k22.h"
  1408                           CCP1CON equ 0FBDh ;# 
  1409  0000                     # 12630 "/opt/microchip/xc8/v2.00/pic/include/pic18f26k22.h"
  1410                           CCPR1 equ 0FBEh ;# 
  1411  0000                     # 12637 "/opt/microchip/xc8/v2.00/pic/include/pic18f26k22.h"
  1412                           CCPR1L equ 0FBEh ;# 
  1413  0000                     # 12657 "/opt/microchip/xc8/v2.00/pic/include/pic18f26k22.h"
  1414                           CCPR1H equ 0FBFh ;# 
  1415  0000                     # 12677 "/opt/microchip/xc8/v2.00/pic/include/pic18f26k22.h"
  1416                           ADCON2 equ 0FC0h ;# 
  1417  0000                     # 12748 "/opt/microchip/xc8/v2.00/pic/include/pic18f26k22.h"
  1418                           ADCON1 equ 0FC1h ;# 
  1419  0000                     # 12816 "/opt/microchip/xc8/v2.00/pic/include/pic18f26k22.h"
  1420                           ADCON0 equ 0FC2h ;# 
  1421  0000                     # 12941 "/opt/microchip/xc8/v2.00/pic/include/pic18f26k22.h"
  1422                           ADRES equ 0FC3h ;# 
  1423  0000                     # 12948 "/opt/microchip/xc8/v2.00/pic/include/pic18f26k22.h"
  1424                           ADRESL equ 0FC3h ;# 
  1425  0000                     # 12968 "/opt/microchip/xc8/v2.00/pic/include/pic18f26k22.h"
  1426                           ADRESH equ 0FC4h ;# 
  1427  0000                     # 12988 "/opt/microchip/xc8/v2.00/pic/include/pic18f26k22.h"
  1428                           SSP1CON2 equ 0FC5h ;# 
  1429  0000                     # 12993 "/opt/microchip/xc8/v2.00/pic/include/pic18f26k22.h"
  1430                           SSPCON2 equ 0FC5h ;# 
  1431  0000                     # 13342 "/opt/microchip/xc8/v2.00/pic/include/pic18f26k22.h"
  1432                           SSP1CON1 equ 0FC6h ;# 
  1433  0000                     # 13347 "/opt/microchip/xc8/v2.00/pic/include/pic18f26k22.h"
  1434                           SSPCON1 equ 0FC6h ;# 
  1435  0000                     # 13580 "/opt/microchip/xc8/v2.00/pic/include/pic18f26k22.h"
  1436                           SSP1STAT equ 0FC7h ;# 
  1437  0000                     # 13585 "/opt/microchip/xc8/v2.00/pic/include/pic18f26k22.h"
  1438                           SSPSTAT equ 0FC7h ;# 
  1439  0000                     # 14210 "/opt/microchip/xc8/v2.00/pic/include/pic18f26k22.h"
  1440                           SSP1ADD equ 0FC8h ;# 
  1441  0000                     # 14215 "/opt/microchip/xc8/v2.00/pic/include/pic18f26k22.h"
  1442                           SSPADD equ 0FC8h ;# 
  1443  0000                     # 14464 "/opt/microchip/xc8/v2.00/pic/include/pic18f26k22.h"
  1444                           SSP1BUF equ 0FC9h ;# 
  1445  0000                     # 14469 "/opt/microchip/xc8/v2.00/pic/include/pic18f26k22.h"
  1446                           SSPBUF equ 0FC9h ;# 
  1447  0000                     # 14518 "/opt/microchip/xc8/v2.00/pic/include/pic18f26k22.h"
  1448                           SSP1MSK equ 0FCAh ;# 
  1449  0000                     # 14523 "/opt/microchip/xc8/v2.00/pic/include/pic18f26k22.h"
  1450                           SSPMSK equ 0FCAh ;# 
  1451  0000                     # 14656 "/opt/microchip/xc8/v2.00/pic/include/pic18f26k22.h"
  1452                           SSP1CON3 equ 0FCBh ;# 
  1453  0000                     # 14661 "/opt/microchip/xc8/v2.00/pic/include/pic18f26k22.h"
  1454                           SSPCON3 equ 0FCBh ;# 
  1455  0000                     # 14778 "/opt/microchip/xc8/v2.00/pic/include/pic18f26k22.h"
  1456                           T1GCON equ 0FCCh ;# 
  1457  0000                     # 14873 "/opt/microchip/xc8/v2.00/pic/include/pic18f26k22.h"
  1458                           T1CON equ 0FCDh ;# 
  1459  0000                     # 14986 "/opt/microchip/xc8/v2.00/pic/include/pic18f26k22.h"
  1460                           TMR1 equ 0FCEh ;# 
  1461  0000                     # 14993 "/opt/microchip/xc8/v2.00/pic/include/pic18f26k22.h"
  1462                           TMR1L equ 0FCEh ;# 
  1463  0000                     # 15013 "/opt/microchip/xc8/v2.00/pic/include/pic18f26k22.h"
  1464                           TMR1H equ 0FCFh ;# 
  1465  0000                     # 15033 "/opt/microchip/xc8/v2.00/pic/include/pic18f26k22.h"
  1466                           RCON equ 0FD0h ;# 
  1467  0000                     # 15166 "/opt/microchip/xc8/v2.00/pic/include/pic18f26k22.h"
  1468                           WDTCON equ 0FD1h ;# 
  1469  0000                     # 15194 "/opt/microchip/xc8/v2.00/pic/include/pic18f26k22.h"
  1470                           OSCCON2 equ 0FD2h ;# 
  1471  0000                     # 15251 "/opt/microchip/xc8/v2.00/pic/include/pic18f26k22.h"
  1472                           OSCCON equ 0FD3h ;# 
  1473  0000                     # 15334 "/opt/microchip/xc8/v2.00/pic/include/pic18f26k22.h"
  1474                           T0CON equ 0FD5h ;# 
  1475  0000                     # 15404 "/opt/microchip/xc8/v2.00/pic/include/pic18f26k22.h"
  1476                           TMR0 equ 0FD6h ;# 
  1477  0000                     # 15411 "/opt/microchip/xc8/v2.00/pic/include/pic18f26k22.h"
  1478                           TMR0L equ 0FD6h ;# 
  1479  0000                     # 15431 "/opt/microchip/xc8/v2.00/pic/include/pic18f26k22.h"
  1480                           TMR0H equ 0FD7h ;# 
  1481  0000                     # 15451 "/opt/microchip/xc8/v2.00/pic/include/pic18f26k22.h"
  1482                           STATUS equ 0FD8h ;# 
  1483  0000                     # 15522 "/opt/microchip/xc8/v2.00/pic/include/pic18f26k22.h"
  1484                           FSR2 equ 0FD9h ;# 
  1485  0000                     # 15529 "/opt/microchip/xc8/v2.00/pic/include/pic18f26k22.h"
  1486                           FSR2L equ 0FD9h ;# 
  1487  0000                     # 15549 "/opt/microchip/xc8/v2.00/pic/include/pic18f26k22.h"
  1488                           FSR2H equ 0FDAh ;# 
  1489  0000                     # 15556 "/opt/microchip/xc8/v2.00/pic/include/pic18f26k22.h"
  1490                           PLUSW2 equ 0FDBh ;# 
  1491  0000                     # 15576 "/opt/microchip/xc8/v2.00/pic/include/pic18f26k22.h"
  1492                           PREINC2 equ 0FDCh ;# 
  1493  0000                     # 15596 "/opt/microchip/xc8/v2.00/pic/include/pic18f26k22.h"
  1494                           POSTDEC2 equ 0FDDh ;# 
  1495  0000                     # 15616 "/opt/microchip/xc8/v2.00/pic/include/pic18f26k22.h"
  1496                           POSTINC2 equ 0FDEh ;# 
  1497  0000                     # 15636 "/opt/microchip/xc8/v2.00/pic/include/pic18f26k22.h"
  1498                           INDF2 equ 0FDFh ;# 
  1499  0000                     # 15656 "/opt/microchip/xc8/v2.00/pic/include/pic18f26k22.h"
  1500                           BSR equ 0FE0h ;# 
  1501  0000                     # 15663 "/opt/microchip/xc8/v2.00/pic/include/pic18f26k22.h"
  1502                           FSR1 equ 0FE1h ;# 
  1503  0000                     # 15670 "/opt/microchip/xc8/v2.00/pic/include/pic18f26k22.h"
  1504                           FSR1L equ 0FE1h ;# 
  1505  0000                     # 15690 "/opt/microchip/xc8/v2.00/pic/include/pic18f26k22.h"
  1506                           FSR1H equ 0FE2h ;# 
  1507  0000                     # 15697 "/opt/microchip/xc8/v2.00/pic/include/pic18f26k22.h"
  1508                           PLUSW1 equ 0FE3h ;# 
  1509  0000                     # 15717 "/opt/microchip/xc8/v2.00/pic/include/pic18f26k22.h"
  1510                           PREINC1 equ 0FE4h ;# 
  1511  0000                     # 15737 "/opt/microchip/xc8/v2.00/pic/include/pic18f26k22.h"
  1512                           POSTDEC1 equ 0FE5h ;# 
  1513  0000                     # 15757 "/opt/microchip/xc8/v2.00/pic/include/pic18f26k22.h"
  1514                           POSTINC1 equ 0FE6h ;# 
  1515  0000                     # 15777 "/opt/microchip/xc8/v2.00/pic/include/pic18f26k22.h"
  1516                           INDF1 equ 0FE7h ;# 
  1517  0000                     # 15797 "/opt/microchip/xc8/v2.00/pic/include/pic18f26k22.h"
  1518                           WREG equ 0FE8h ;# 
  1519  0000                     # 15835 "/opt/microchip/xc8/v2.00/pic/include/pic18f26k22.h"
  1520                           FSR0 equ 0FE9h ;# 
  1521  0000                     # 15842 "/opt/microchip/xc8/v2.00/pic/include/pic18f26k22.h"
  1522                           FSR0L equ 0FE9h ;# 
  1523  0000                     # 15862 "/opt/microchip/xc8/v2.00/pic/include/pic18f26k22.h"
  1524                           FSR0H equ 0FEAh ;# 
  1525  0000                     # 15869 "/opt/microchip/xc8/v2.00/pic/include/pic18f26k22.h"
  1526                           PLUSW0 equ 0FEBh ;# 
  1527  0000                     # 15889 "/opt/microchip/xc8/v2.00/pic/include/pic18f26k22.h"
  1528                           PREINC0 equ 0FECh ;# 
  1529  0000                     # 15909 "/opt/microchip/xc8/v2.00/pic/include/pic18f26k22.h"
  1530                           POSTDEC0 equ 0FEDh ;# 
  1531  0000                     # 15929 "/opt/microchip/xc8/v2.00/pic/include/pic18f26k22.h"
  1532                           POSTINC0 equ 0FEEh ;# 
  1533  0000                     # 15949 "/opt/microchip/xc8/v2.00/pic/include/pic18f26k22.h"
  1534                           INDF0 equ 0FEFh ;# 
  1535  0000                     # 15969 "/opt/microchip/xc8/v2.00/pic/include/pic18f26k22.h"
  1536                           INTCON3 equ 0FF0h ;# 
  1537  0000                     # 16061 "/opt/microchip/xc8/v2.00/pic/include/pic18f26k22.h"
  1538                           INTCON2 equ 0FF1h ;# 
  1539  0000                     # 16131 "/opt/microchip/xc8/v2.00/pic/include/pic18f26k22.h"
  1540                           INTCON equ 0FF2h ;# 
  1541  0000                     # 16248 "/opt/microchip/xc8/v2.00/pic/include/pic18f26k22.h"
  1542                           PROD equ 0FF3h ;# 
  1543  0000                     # 16255 "/opt/microchip/xc8/v2.00/pic/include/pic18f26k22.h"
  1544                           PRODL equ 0FF3h ;# 
  1545  0000                     # 16275 "/opt/microchip/xc8/v2.00/pic/include/pic18f26k22.h"
  1546                           PRODH equ 0FF4h ;# 
  1547  0000                     # 16295 "/opt/microchip/xc8/v2.00/pic/include/pic18f26k22.h"
  1548                           TABLAT equ 0FF5h ;# 
  1549  0000                     # 16317 "/opt/microchip/xc8/v2.00/pic/include/pic18f26k22.h"
  1550                           TBLPTR equ 0FF6h ;# 
  1551  0000                     # 16324 "/opt/microchip/xc8/v2.00/pic/include/pic18f26k22.h"
  1552                           TBLPTRL equ 0FF6h ;# 
  1553  0000                     # 16344 "/opt/microchip/xc8/v2.00/pic/include/pic18f26k22.h"
  1554                           TBLPTRH equ 0FF7h ;# 
  1555  0000                     # 16364 "/opt/microchip/xc8/v2.00/pic/include/pic18f26k22.h"
  1556                           TBLPTRU equ 0FF8h ;# 
  1557  0000                     # 16395 "/opt/microchip/xc8/v2.00/pic/include/pic18f26k22.h"
  1558                           PCLAT equ 0FF9h ;# 
  1559  0000                     # 16402 "/opt/microchip/xc8/v2.00/pic/include/pic18f26k22.h"
  1560                           PC equ 0FF9h ;# 
  1561  0000                     # 16409 "/opt/microchip/xc8/v2.00/pic/include/pic18f26k22.h"
  1562                           PCL equ 0FF9h ;# 
  1563  0000                     # 16429 "/opt/microchip/xc8/v2.00/pic/include/pic18f26k22.h"
  1564                           PCLATH equ 0FFAh ;# 
  1565  0000                     # 16449 "/opt/microchip/xc8/v2.00/pic/include/pic18f26k22.h"
  1566                           PCLATU equ 0FFBh ;# 
  1567  0000                     # 16456 "/opt/microchip/xc8/v2.00/pic/include/pic18f26k22.h"
  1568                           STKPTR equ 0FFCh ;# 
  1569  0000                     # 16562 "/opt/microchip/xc8/v2.00/pic/include/pic18f26k22.h"
  1570                           TOS equ 0FFDh ;# 
  1571  0000                     # 16569 "/opt/microchip/xc8/v2.00/pic/include/pic18f26k22.h"
  1572                           TOSL equ 0FFDh ;# 
  1573  0000                     # 16589 "/opt/microchip/xc8/v2.00/pic/include/pic18f26k22.h"
  1574                           TOSH equ 0FFEh ;# 
  1575  0000                     # 16609 "/opt/microchip/xc8/v2.00/pic/include/pic18f26k22.h"
  1576                           TOSU equ 0FFFh ;# 
  1577  0000                     	FNCALL	_main,_UARTInit
  1578                           	FNCALL	_main,_UARTWriteByteDec
  1579                           	FNCALL	_main,_readVoltage
  1580                           	FNCALL	_main,_toPercentage
  1581                           	FNCALL	_UARTWriteByteDec,_UARTWriteByte
  1582                           	FNCALL	_UARTWriteByteDec,___awdiv
  1583                           	FNCALL	_UARTWriteByteDec,___awmod
  1584                           	FNROOT	_main
  1585                           	global	_ANSELAbits
  1586                           _ANSELAbits	set	0xF38
  1587  0000                     	global	_ANSELCbits
  1588                           _ANSELCbits	set	0xF3A
  1589  0000                     	global	_ADRESH
  1590                           _ADRESH	set	0xFC4
  1591  0000                     	global	_ADCON0bits
  1592                           _ADCON0bits	set	0xFC2
  1593  0000                     	global	_ADCON2
  1594                           _ADCON2	set	0xFC0
  1595  0000                     	global	_ADCON1
  1596                           _ADCON1	set	0xFC1
  1597  0000                     	global	_ADCON0
  1598                           _ADCON0	set	0xFC2
  1599  0000                     	global	_TRISAbits
  1600                           _TRISAbits	set	0xF92
  1601  0000                     	global	_RCREG1
  1602                           _RCREG1	set	0xFAE
  1603  0000                     	global	_TXREG1
  1604                           _TXREG1	set	0xFAD
  1605  0000                     	global	_SPBRGH1
  1606                           _SPBRGH1	set	0xFB0
  1607  0000                     	global	_SPBRG1
  1608                           _SPBRG1	set	0xFAF
  1609  0000                     	global	_BAUDCON1bits
  1610                           _BAUDCON1bits	set	0xFB8
  1611  0000                     	global	_PIE1bits
  1612                           _PIE1bits	set	0xF9D
  1613  0000                     	global	_RCSTA1bits
  1614                           _RCSTA1bits	set	0xFAB
  1615  0000                     	global	_TXSTA1bits
  1616                           _TXSTA1bits	set	0xFAC
  1617  0000                     	global	_RCSTA1
  1618                           _RCSTA1	set	0xFAB
  1619  0000                     	global	_TXSTA1
  1620                           _TXSTA1	set	0xFAC
  1621  0000                     	global	_TRISCbits
  1622                           _TRISCbits	set	0xF94
  1623  0000                     	global	_PEIE
  1624                           _PEIE	set	0x7F96
  1625  0000                     	global	_RCIE
  1626                           _RCIE	set	0x7CED
  1627  0000                     	global	_RCIF
  1628                           _RCIF	set	0x7CF5
  1629  0000                     psect	smallconst,class=SMALLCONST,space=0,reloc=2,noexec
  1630                           global __psmallconst
  1631                           __psmallconst:
  1632  001000                     	db	0
  1633  001000  00                 	
  1634                           STR_1:; BSR set to: 15
  1635  001001                     
  1636                           	db	48	;'0'
  1637  001001  30                 	db	49	;'1'
  1638  001002  31                 	db	50	;'2'
  1639  001003  32                 	db	51	;'3'
  1640  001004  33                 	db	52	;'4'
  1641  001005  34                 	db	53	;'5'
  1642  001006  35                 	db	54	;'6'
  1643  001007  36                 	db	55	;'7'
  1644  001008  37                 	db	56	;'8'
  1645  001009  38                 	db	57	;'9'
  1646  00100A  39                 	db	65	;'A'
  1647  00100B  41                 	db	66	;'B'
  1648  00100C  42                 	db	67	;'C'
  1649  00100D  43                 	db	68	;'D'
  1650  00100E  44                 	db	69	;'E'
  1651  00100F  45                 	db	70	;'F'
  1652  001010  46                 	db	0
  1653  001011  00                 ; #config settings
  1654                           global __CFG_FOSC$INTIO7
  1655                           __CFG_FOSC$INTIO7 equ 0x0
  1656  0000                     global __CFG_PLLCFG$OFF
  1657                           __CFG_PLLCFG$OFF equ 0x0
  1658  0000                     global __CFG_PRICLKEN$ON
  1659                           __CFG_PRICLKEN$ON equ 0x0
  1660  0000                     global __CFG_FCMEN$OFF
  1661                           __CFG_FCMEN$OFF equ 0x0
  1662  0000                     global __CFG_IESO$OFF
  1663                           __CFG_IESO$OFF equ 0x0
  1664  0000                     global __CFG_PWRTEN$OFF
  1665                           __CFG_PWRTEN$OFF equ 0x0
  1666  0000                     global __CFG_BOREN$SBORDIS
  1667                           __CFG_BOREN$SBORDIS equ 0x0
  1668  0000                     global __CFG_BORV$190
  1669                           __CFG_BORV$190 equ 0x0
  1670  0000                     global __CFG_WDTEN$OFF
  1671                           __CFG_WDTEN$OFF equ 0x0
  1672  0000                     global __CFG_WDTPS$32768
  1673                           __CFG_WDTPS$32768 equ 0x0
  1674  0000                     global __CFG_CCP2MX$PORTC1
  1675                           __CFG_CCP2MX$PORTC1 equ 0x0
  1676  0000                     global __CFG_PBADEN$OFF
  1677                           __CFG_PBADEN$OFF equ 0x0
  1678  0000                     global __CFG_CCP3MX$PORTB5
  1679                           __CFG_CCP3MX$PORTB5 equ 0x0
  1680  0000                     global __CFG_HFOFST$ON
  1681                           __CFG_HFOFST$ON equ 0x0
  1682  0000                     global __CFG_T3CMX$PORTC0
  1683                           __CFG_T3CMX$PORTC0 equ 0x0
  1684  0000                     global __CFG_P2BMX$PORTB5
  1685                           __CFG_P2BMX$PORTB5 equ 0x0
  1686  0000                     global __CFG_MCLRE$EXTMCLR
  1687                           __CFG_MCLRE$EXTMCLR equ 0x0
  1688  0000                     global __CFG_STVREN$ON
  1689                           __CFG_STVREN$ON equ 0x0
  1690  0000                     global __CFG_LVP$OFF
  1691                           __CFG_LVP$OFF equ 0x0
  1692  0000                     global __CFG_XINST$OFF
  1693                           __CFG_XINST$OFF equ 0x0
  1694  0000                     global __CFG_CP0$OFF
  1695                           __CFG_CP0$OFF equ 0x0
  1696  0000                     global __CFG_CP1$OFF
  1697                           __CFG_CP1$OFF equ 0x0
  1698  0000                     global __CFG_CP2$OFF
  1699                           __CFG_CP2$OFF equ 0x0
  1700  0000                     global __CFG_CP3$OFF
  1701                           __CFG_CP3$OFF equ 0x0
  1702  0000                     global __CFG_CPB$OFF
  1703                           __CFG_CPB$OFF equ 0x0
  1704  0000                     global __CFG_CPD$OFF
  1705                           __CFG_CPD$OFF equ 0x0
  1706  0000                     global __CFG_WRT0$OFF
  1707                           __CFG_WRT0$OFF equ 0x0
  1708  0000                     global __CFG_WRT1$OFF
  1709                           __CFG_WRT1$OFF equ 0x0
  1710  0000                     global __CFG_WRT2$OFF
  1711                           __CFG_WRT2$OFF equ 0x0
  1712  0000                     global __CFG_WRT3$OFF
  1713                           __CFG_WRT3$OFF equ 0x0
  1714  0000                     global __CFG_WRTC$OFF
  1715                           __CFG_WRTC$OFF equ 0x0
  1716  0000                     global __CFG_WRTB$OFF
  1717                           __CFG_WRTB$OFF equ 0x0
  1718  0000                     global __CFG_WRTD$OFF
  1719                           __CFG_WRTD$OFF equ 0x0
  1720  0000                     global __CFG_EBTR0$OFF
  1721                           __CFG_EBTR0$OFF equ 0x0
  1722  0000                     global __CFG_EBTR1$OFF
  1723                           __CFG_EBTR1$OFF equ 0x0
  1724  0000                     global __CFG_EBTR2$OFF
  1725                           __CFG_EBTR2$OFF equ 0x0
  1726  0000                     global __CFG_EBTR3$OFF
  1727                           __CFG_EBTR3$OFF equ 0x0
  1728  0000                     global __CFG_EBTRB$OFF
  1729                           __CFG_EBTRB$OFF equ 0x0
  1730  0000                     	file	"/tmp/xcXWIsKAz"
  1731                           	line	#
  1732                           psect	cinit,class=CODE,delta=1,reloc=2
  1733                           global __pcinit
  1734                           __pcinit:
  1735  001414                     global start_initialization
  1736                           start_initialization:
  1737  001414                     
  1738                           global __initialization
  1739                           __initialization:
  1740  001414                     psect cinit,class=CODE,delta=1
  1741                           global end_of_initialization,__end_of__initialization
  1742                           
  1743                           ;End of C runtime variable initialization code
  1744                           
  1745                           end_of_initialization:
  1746  001414                     __end_of__initialization:
  1747  001414                     	GLOBAL	__Lsmallconst
  1748                           	movlw	low highword(__Lsmallconst)
  1749  001414  0E00               	movwf	tblptru
  1750  001416  6EF8               	movlw	high(__Lsmallconst)
  1751  001418  0E10               	movwf	tblptrh
  1752  00141A  6EF7               movlb 0
  1753  00141C  0100               goto _main	;jump to C main() function
  1754  00141E  EFA4  F009         psect	cstackCOMRAM,class=COMRAM,space=1,noexec
  1755                           global __pcstackCOMRAM
  1756                           __pcstackCOMRAM:
  1757  000001                     ?_UARTInit:	; 1 bytes @ 0x0
  1758  000001                     ?_UARTWriteByteDec:	; 1 bytes @ 0x0
  1759  000001                     ?_toPercentage:	; 1 bytes @ 0x0
  1760  000001                     ??_toPercentage:	; 1 bytes @ 0x0
  1761  000001                     ?_readVoltage:	; 1 bytes @ 0x0
  1762  000001                     ??_readVoltage:	; 1 bytes @ 0x0
  1763  000001                     ?_UARTWriteByte:	; 1 bytes @ 0x0
  1764  000001                     ??_UARTWriteByte:	; 1 bytes @ 0x0
  1765  000001                     	global	?___awmod
  1766                           ?___awmod:	; 2 bytes @ 0x0
  1767  000001                     	global	UARTWriteByte@data
  1768                           UARTWriteByte@data:	; 1 bytes @ 0x0
  1769  000001                     	global	toPercentage@value
  1770                           toPercentage@value:	; 1 bytes @ 0x0
  1771  000001                     	global	UARTInit@baudRate
  1772                           UARTInit@baudRate:	; 2 bytes @ 0x0
  1773  000001                     	global	___awmod@dividend
  1774                           ___awmod@dividend:	; 2 bytes @ 0x0
  1775  000001                     	ds   2
  1776  000001                     ??_UARTInit:	; 1 bytes @ 0x2
  1777  000003                     	global	___awmod@divisor
  1778                           ___awmod@divisor:	; 2 bytes @ 0x2
  1779  000003                     	ds   2
  1780  000003                     ??___awmod:	; 1 bytes @ 0x4
  1781  000005                     	global	___awmod@counter
  1782                           ___awmod@counter:	; 1 bytes @ 0x4
  1783  000005                     	ds   1
  1784  000005                     	global	___awmod@sign
  1785                           ___awmod@sign:	; 1 bytes @ 0x5
  1786  000006                     	ds   1
  1787  000006                     	global	?___awdiv
  1788                           ?___awdiv:	; 2 bytes @ 0x6
  1789  000007                     	global	___awdiv@dividend
  1790                           ___awdiv@dividend:	; 2 bytes @ 0x6
  1791  000007                     	ds   2
  1792  000007                     	global	___awdiv@divisor
  1793                           ___awdiv@divisor:	; 2 bytes @ 0x8
  1794  000009                     	ds   2
  1795  000009                     ??___awdiv:	; 1 bytes @ 0xA
  1796  00000B                     	global	___awdiv@counter
  1797                           ___awdiv@counter:	; 1 bytes @ 0xA
  1798  00000B                     	ds   1
  1799  00000B                     	global	___awdiv@sign
  1800                           ___awdiv@sign:	; 1 bytes @ 0xB
  1801  00000C                     	ds   1
  1802  00000C                     	global	___awdiv@quotient
  1803                           ___awdiv@quotient:	; 2 bytes @ 0xC
  1804  00000D                     	ds   2
  1805  00000D                     ??_UARTWriteByteDec:	; 1 bytes @ 0xE
  1806  00000F                     	global	UARTWriteByteDec@data
  1807                           UARTWriteByteDec@data:	; 1 bytes @ 0xE
  1808  00000F                     	ds   1
  1809  00000F                     ?_main:	; 2 bytes @ 0xF
  1810  000010                     main@argc:	; 2 bytes @ 0xF
  1811  000010                     	ds   2
  1812  000010                     main@argv:	; 3 bytes @ 0x11
  1813  000012                     	ds   3
  1814  000012                     ??_main:	; 1 bytes @ 0x14
  1815  000015                     	ds   2
  1816  000015                     ;!
  1817                           ;!Data Sizes:
  1818                           ;!    Strings     17
  1819                           ;!    Constant    0
  1820                           ;!    Data        0
  1821                           ;!    BSS         0
  1822                           ;!    Persistent  0
  1823                           ;!    Stack       0
  1824                           ;!
  1825                           ;!Auto Spaces:
  1826                           ;!    Space          Size  Autos    Used
  1827                           ;!    COMRAM           95     22      22
  1828                           ;!    BANK0           160      0       0
  1829                           ;!    BANK1           256      0       0
  1830                           ;!    BANK2           256      0       0
  1831                           ;!    BANK3           256      0       0
  1832                           ;!    BANK4           256      0       0
  1833                           ;!    BANK5           256      0       0
  1834                           ;!    BANK6           256      0       0
  1835                           ;!    BANK7           256      0       0
  1836                           ;!    BANK8           256      0       0
  1837                           ;!    BANK9           256      0       0
  1838                           ;!    BANK10          256      0       0
  1839                           ;!    BANK11          256      0       0
  1840                           ;!    BANK12          256      0       0
  1841                           ;!    BANK13          256      0       0
  1842                           ;!    BANK14          256      0       0
  1843                           ;!    BANK15           56      0       0
  1844                           
  1845                           ;!
  1846                           ;!Pointer List with Targets:
  1847                           ;!
  1848                           ;!    None.
  1849                           
  1850                           
  1851                           ;!
  1852                           ;!Critical Paths under _main in COMRAM
  1853                           ;!
  1854                           ;!    _main->_UARTWriteByteDec
  1855                           ;!    _UARTWriteByteDec->___awdiv
  1856                           ;!    ___awdiv->___awmod
  1857                           ;!
  1858                           ;!Critical Paths under _main in BANK0
  1859                           ;!
  1860                           ;!    None.
  1861                           ;!
  1862                           ;!Critical Paths under _main in BANK1
  1863                           ;!
  1864                           ;!    None.
  1865                           ;!
  1866                           ;!Critical Paths under _main in BANK2
  1867                           ;!
  1868                           ;!    None.
  1869                           ;!
  1870                           ;!Critical Paths under _main in BANK3
  1871                           ;!
  1872                           ;!    None.
  1873                           ;!
  1874                           ;!Critical Paths under _main in BANK4
  1875                           ;!
  1876                           ;!    None.
  1877                           ;!
  1878                           ;!Critical Paths under _main in BANK5
  1879                           ;!
  1880                           ;!    None.
  1881                           ;!
  1882                           ;!Critical Paths under _main in BANK6
  1883                           ;!
  1884                           ;!    None.
  1885                           ;!
  1886                           ;!Critical Paths under _main in BANK7
  1887                           ;!
  1888                           ;!    None.
  1889                           ;!
  1890                           ;!Critical Paths under _main in BANK8
  1891                           ;!
  1892                           ;!    None.
  1893                           ;!
  1894                           ;!Critical Paths under _main in BANK9
  1895                           ;!
  1896                           ;!    None.
  1897                           ;!
  1898                           ;!Critical Paths under _main in BANK10
  1899                           ;!
  1900                           ;!    None.
  1901                           ;!
  1902                           ;!Critical Paths under _main in BANK11
  1903                           ;!
  1904                           ;!    None.
  1905                           ;!
  1906                           ;!Critical Paths under _main in BANK12
  1907                           ;!
  1908                           ;!    None.
  1909                           ;!
  1910                           ;!Critical Paths under _main in BANK13
  1911                           ;!
  1912                           ;!    None.
  1913                           ;!
  1914                           ;!Critical Paths under _main in BANK14
  1915                           ;!
  1916                           ;!    None.
  1917                           ;!
  1918                           ;!Critical Paths under _main in BANK15
  1919                           ;!
  1920                           ;!    None.
  1921                           
  1922 ;;
  1923 ;;Main: autosize = 0, tempsize = 2, incstack = 0, save=0
  1924 ;;
  1925                           
  1926                           ;!
  1927                           ;!Call Graph Tables:
  1928                           ;!
  1929                           ;! ---------------------------------------------------------------------------------
  1930                           ;! (Depth) Function   	        Calls       Base Space   Used Autos Params    Refs
  1931                           ;! ---------------------------------------------------------------------------------
  1932                           ;! (0) _main                                                 7     2      5    1678
  1933                           ;!                                             15 COMRAM     7     2      5
  1934                           ;!                           _UARTInit
  1935                           ;!                   _UARTWriteByteDec
  1936                           ;!                        _readVoltage
  1937                           ;!                       _toPercentage
  1938                           ;! ---------------------------------------------------------------------------------
  1939                           ;! (1) _toPercentage                                         1     1      0     165
  1940                           ;!                                              0 COMRAM     1     1      0
  1941                           ;! ---------------------------------------------------------------------------------
  1942                           ;! (1) _readVoltage                                          0     0      0       0
  1943                           ;! ---------------------------------------------------------------------------------
  1944                           ;! (1) _UARTWriteByteDec                                     1     1      0    1437
  1945                           ;!                                             14 COMRAM     1     1      0
  1946                           ;!                      _UARTWriteByte
  1947                           ;!                            ___awdiv
  1948                           ;!                            ___awmod
  1949                           ;! ---------------------------------------------------------------------------------
  1950                           ;! (2) ___awmod                                              6     2      4     600
  1951                           ;!                                              0 COMRAM     6     2      4
  1952                           ;! ---------------------------------------------------------------------------------
  1953                           ;! (2) ___awdiv                                              8     4      4     756
  1954                           ;!                                              6 COMRAM     8     4      4
  1955                           ;!                            ___awmod (ARG)
  1956                           ;! ---------------------------------------------------------------------------------
  1957                           ;! (2) _UARTWriteByte                                        1     1      0      15
  1958                           ;!                                              0 COMRAM     1     1      0
  1959                           ;! ---------------------------------------------------------------------------------
  1960                           ;! (1) _UARTInit                                             2     0      2      76
  1961                           ;!                                              0 COMRAM     2     0      2
  1962                           ;! ---------------------------------------------------------------------------------
  1963                           ;! Estimated maximum stack depth 2
  1964                           ;! ---------------------------------------------------------------------------------
  1965                           ;!
  1966                           ;! Call Graph Graphs:
  1967                           ;!
  1968                           ;! _main (ROOT)
  1969                           ;!   _UARTInit
  1970                           ;!   _UARTWriteByteDec
  1971                           ;!     _UARTWriteByte
  1972                           ;!     ___awdiv
  1973                           ;!       ___awmod (ARG)
  1974                           ;!     ___awmod
  1975                           ;!   _readVoltage
  1976                           ;!   _toPercentage
  1977                           ;!
  1978                           
  1979                           ;! Address spaces:
  1980                           
  1981                           ;!Name               Size   Autos  Total    Cost      Usage
  1982                           ;!BITCOMRAM           5F      0       0       0        0.0%
  1983                           ;!EEDATA             400      0       0       0        0.0%
  1984                           ;!NULL                 0      0       0       0        0.0%
  1985                           ;!CODE                 0      0       0       0        0.0%
  1986                           ;!COMRAM              5F     16      16       1       23.2%
  1987                           ;!STACK                0      0       0       2        0.0%
  1988                           ;!DATA                 0      0       0       3        0.0%
  1989                           ;!BITBANK0            A0      0       0       4        0.0%
  1990                           ;!BANK0               A0      0       0       5        0.0%
  1991                           ;!BITBANK1           100      0       0       6        0.0%
  1992                           ;!BANK1              100      0       0       7        0.0%
  1993                           ;!BITBANK2           100      0       0       8        0.0%
  1994                           ;!BANK2              100      0       0       9        0.0%
  1995                           ;!BITBANK3           100      0       0      10        0.0%
  1996                           ;!BANK3              100      0       0      11        0.0%
  1997                           ;!ABS                  0      0       0      12        0.0%
  1998                           ;!BITBANK4           100      0       0      13        0.0%
  1999                           ;!BANK4              100      0       0      14        0.0%
  2000                           ;!BITBANK5           100      0       0      15        0.0%
  2001                           ;!BANK5              100      0       0      16        0.0%
  2002                           ;!BITBANK6           100      0       0      17        0.0%
  2003                           ;!BANK6              100      0       0      18        0.0%
  2004                           ;!BITBANK7           100      0       0      19        0.0%
  2005                           ;!BANK7              100      0       0      20        0.0%
  2006                           ;!BITBANK8           100      0       0      21        0.0%
  2007                           ;!BANK8              100      0       0      22        0.0%
  2008                           ;!BITBANK9           100      0       0      23        0.0%
  2009                           ;!BANK9              100      0       0      24        0.0%
  2010                           ;!BITBANK10          100      0       0      25        0.0%
  2011                           ;!BANK10             100      0       0      26        0.0%
  2012                           ;!BITBANK11          100      0       0      27        0.0%
  2013                           ;!BANK11             100      0       0      28        0.0%
  2014                           ;!BITBANK12          100      0       0      29        0.0%
  2015                           ;!BANK12             100      0       0      30        0.0%
  2016                           ;!BITBANK13          100      0       0      31        0.0%
  2017                           ;!BANK13             100      0       0      32        0.0%
  2018                           ;!BITBANK14          100      0       0      33        0.0%
  2019                           ;!BANK14             100      0       0      34        0.0%
  2020                           ;!BITBANK15           38      0       0      35        0.0%
  2021                           ;!BANK15              38      0       0      36        0.0%
  2022                           ;!BIGRAM             F37      0       0      37        0.0%
  2023                           ;!BITSFR_1             0      0       0     200        0.0%
  2024                           ;!SFR_1                0      0       0     200        0.0%
  2025                           ;!BITSFR               0      0       0     200        0.0%
  2026                           ;!SFR                  0      0       0     200        0.0%
  2027                           
  2028                           	global	_main
  2029                           
  2030 ;; *************** function _main *****************
  2031 ;; Defined at:
  2032 ;;		line 85 in file "main.c"
  2033 ;; Parameters:    Size  Location     Type
  2034 ;;  argc            2   15[COMRAM] int 
  2035 ;;  argv            3   17[COMRAM] PTR PTR unsigned char 
  2036 ;; Auto vars:     Size  Location     Type
  2037 ;;		None
  2038 ;; Return value:  Size  Location     Type
  2039 ;;                  2   15[COMRAM] int 
  2040 ;; Registers used:
  2041 ;;		wreg, status,2, status,0, cstack
  2042 ;; Tracked objects:
  2043 ;;		On entry : 0/0
  2044 ;;		On exit  : 0/0
  2045 ;;		Unchanged: 0/0
  2046 ;; Data sizes:     COMRAM   BANK0   BANK1   BANK2   BANK3   BANK4   BANK5   BANK6   BANK7   BANK8   BANK9  BANK10  BANK1
       1  BANK12  BANK13  BANK14  BANK15
  2047 ;;      Params:         5       0       0       0       0       0       0       0       0       0       0       0       
       0       0       0       0       0
  2048 ;;      Locals:         0       0       0       0       0       0       0       0       0       0       0       0       
       0       0       0       0       0
  2049 ;;      Temps:          2       0       0       0       0       0       0       0       0       0       0       0       
       0       0       0       0       0
  2050 ;;      Totals:         7       0       0       0       0       0       0       0       0       0       0       0       
       0       0       0       0       0
  2051 ;;Total ram usage:        7 bytes
  2052 ;; Hardware stack levels required when called:    2
  2053 ;; This function calls:
  2054 ;;		_UARTInit
  2055 ;;		_UARTWriteByteDec
  2056 ;;		_readVoltage
  2057 ;;		_toPercentage
  2058 ;; This function is called by:
  2059 ;;		Startup code after reset
  2060 ;; This function uses a non-reentrant model
  2061 ;;
  2062                           psect	text0,class=CODE,space=0,reloc=2,group=0
  2063                           	file	"main.c"
  2064                           	line	85
  2065                           global __ptext0
  2066                           __ptext0:
  2067  001348                     psect	text0
  2068                           	file	"main.c"
  2069                           	line	85
  2070                           	global	__size_of_main
  2071                           	__size_of_main	equ	__end_of_main-_main
  2072  0000                     	
  2073                           _main:
  2074  001348                     ;incstack = 0
  2075                           	opt	stack 29
  2076                           	line	87
  2077                           	
  2078                           l1128:
  2079  001348                     	movlw	high(04B00h)
  2080  001348  0E4B               	movwf	((c:UARTInit@baudRate+1)),c
  2081  00134A  6E02               	movlw	low(04B00h)
  2082  00134C  0E00               	movwf	((c:UARTInit@baudRate)),c
  2083  00134E  6E01               	call	_UARTInit	;wreg free
  2084  001350  ECE0  F009         	goto	l1130
  2085  001354  EFAC  F009         	line	89
  2086                           	
  2087                           l15:
  2088  001358                     	line	90
  2089                           	
  2090                           l1130:
  2091  001358                     	call	_readVoltage	;wreg free
  2092  001358  ECC3  F009         	
  2093                           	call	_toPercentage
  2094  00135C  EC0A  F008         	
  2095                           	call	_UARTWriteByteDec
  2096  001360  EC6B  F009         	line	91
  2097                           	
  2098                           l1132:
  2099  001364                     	opt asmopt_push
  2100                           opt asmopt_off
  2101                           movlw  7
  2102  001364  0E07               movwf	(??_main+0+0+1)&0ffh,c,f
  2103  001366  6E16               movlw	88
  2104  001368  0E58               movwf	(??_main+0+0)&0ffh,c,f
  2105  00136A  6E15               	movlw	90
  2106  00136C  0E5A               u407:
  2107  00136E                     decfsz	wreg,f
  2108  00136E  2EE8               	bra	u407
  2109  001370  D7FE               	decfsz	(??_main+0+0)&0ffh,c,f
  2110  001372  2E15               	bra	u407
  2111  001374  D7FC               	decfsz	(??_main+0+0+1)&0ffh,c,f
  2112  001376  2E16               	bra	u407
  2113  001378  D7FA               opt asmopt_pop
  2114                           
  2115                           	goto	l1130
  2116  00137A  EFAC  F009         	line	92
  2117                           	
  2118                           l16:
  2119  00137E                     	goto	l1130
  2120  00137E  EFAC  F009         	
  2121                           l17:
  2122  001382                     	line	95
  2123                           ;	Return value of _main is never used
  2124                           	
  2125                           l18:
  2126  001382                     	global	start
  2127                           	goto	start
  2128  001382  EF00  F000         	opt stack 0
  2129                           GLOBAL	__end_of_main
  2130                           	__end_of_main:
  2131  001386                     	signat	_main,8314
  2132                           	global	_toPercentage
  2133                           
  2134 ;; *************** function _toPercentage *****************
  2135 ;; Defined at:
  2136 ;;		line 24 in file "volt.c"
  2137 ;; Parameters:    Size  Location     Type
  2138 ;;  value           1    wreg     unsigned char 
  2139 ;; Auto vars:     Size  Location     Type
  2140 ;;  value           1    0[COMRAM] unsigned char 
  2141 ;; Return value:  Size  Location     Type
  2142 ;;                  1    wreg      unsigned char 
  2143 ;; Registers used:
  2144 ;;		wreg, status,2, status,0
  2145 ;; Tracked objects:
  2146 ;;		On entry : 0/0
  2147 ;;		On exit  : 0/0
  2148 ;;		Unchanged: 0/0
  2149 ;; Data sizes:     COMRAM   BANK0   BANK1   BANK2   BANK3   BANK4   BANK5   BANK6   BANK7   BANK8   BANK9  BANK10  BANK1
       1  BANK12  BANK13  BANK14  BANK15
  2150 ;;      Params:         0       0       0       0       0       0       0       0       0       0       0       0       
       0       0       0       0       0
  2151 ;;      Locals:         1       0       0       0       0       0       0       0       0       0       0       0       
       0       0       0       0       0
  2152 ;;      Temps:          0       0       0       0       0       0       0       0       0       0       0       0       
       0       0       0       0       0
  2153 ;;      Totals:         1       0       0       0       0       0       0       0       0       0       0       0       
       0       0       0       0       0
  2154 ;;Total ram usage:        1 bytes
  2155 ;; Hardware stack levels used:    1
  2156 ;; This function calls:
  2157 ;;		Nothing
  2158 ;; This function is called by:
  2159 ;;		_main
  2160 ;; This function uses a non-reentrant model
  2161 ;;
  2162                           psect	text1,class=CODE,space=0,reloc=2,group=0
  2163                           	file	"volt.c"
  2164                           	line	24
  2165                           global __ptext1
  2166                           __ptext1:
  2167  001014                     psect	text1
  2168                           	file	"volt.c"
  2169                           	line	24
  2170                           	global	__size_of_toPercentage
  2171                           	__size_of_toPercentage	equ	__end_of_toPercentage-_toPercentage
  2172  0000                     	
  2173                           _toPercentage:
  2174  001014                     ;incstack = 0
  2175                           	opt	stack 30
  2176                           ;toPercentage@value stored from wreg
  2177                           	movwf	((c:toPercentage@value)),c
  2178  001014  6E01               	line	25
  2179                           	
  2180                           l914:
  2181  001016                     ;volt.c: 25:     if (value > 159)
  2182                           		movlw	0A0h-1
  2183  001016  0E9F               	cpfsgt	((c:toPercentage@value)),c
  2184  001018  6401               	goto	u151
  2185  00101A  EF11  F008         	goto	u150
  2186  00101E  EF13  F008         
  2187                           u151:
  2188  001022                     	goto	l920
  2189  001022  EF18  F008         u150:
  2190  001026                     	line	26
  2191                           	
  2192                           l916:
  2193  001026                     ;volt.c: 26:         return(100);
  2194                           	movlw	(064h)&0ffh
  2195  001026  0E64               	goto	l104
  2196  001028  EF88  F008         	
  2197                           l918:
  2198  00102C                     	goto	l104
  2199  00102C  EF88  F008         	
  2200                           l103:
  2201  001030                     	line	27
  2202                           	
  2203                           l920:
  2204  001030                     ;volt.c: 27:     if (151 <= value && value < 159)
  2205                           		movlw	097h-1
  2206  001030  0E96               	cpfsgt	((c:toPercentage@value)),c
  2207  001032  6401               	goto	u161
  2208  001034  EF1E  F008         	goto	u160
  2209  001038  EF20  F008         
  2210                           u161:
  2211  00103C                     	goto	l928
  2212  00103C  EF2D  F008         u160:
  2213  001040                     	
  2214                           l922:
  2215  001040                     		movlw	09Fh-0
  2216  001040  0E9F               	cpfslt	((c:toPercentage@value)),c
  2217  001042  6001               	goto	u171
  2218  001044  EF26  F008         	goto	u170
  2219  001048  EF28  F008         
  2220                           u171:
  2221  00104C                     	goto	l928
  2222  00104C  EF2D  F008         u170:
  2223  001050                     	line	28
  2224                           	
  2225                           l924:
  2226  001050                     ;volt.c: 28:         return(80);
  2227                           	movlw	(050h)&0ffh
  2228  001050  0E50               	goto	l104
  2229  001052  EF88  F008         	
  2230                           l926:
  2231  001056                     	goto	l104
  2232  001056  EF88  F008         	
  2233                           l105:
  2234  00105A                     	line	29
  2235                           	
  2236                           l928:
  2237  00105A                     ;volt.c: 29:     if (147 <= value && value < 151)
  2238                           		movlw	093h-1
  2239  00105A  0E92               	cpfsgt	((c:toPercentage@value)),c
  2240  00105C  6401               	goto	u181
  2241  00105E  EF33  F008         	goto	u180
  2242  001062  EF35  F008         
  2243                           u181:
  2244  001066                     	goto	l936
  2245  001066  EF42  F008         u180:
  2246  00106A                     	
  2247                           l930:
  2248  00106A                     		movlw	097h-0
  2249  00106A  0E97               	cpfslt	((c:toPercentage@value)),c
  2250  00106C  6001               	goto	u191
  2251  00106E  EF3B  F008         	goto	u190
  2252  001072  EF3D  F008         
  2253                           u191:
  2254  001076                     	goto	l936
  2255  001076  EF42  F008         u190:
  2256  00107A                     	line	30
  2257                           	
  2258                           l932:
  2259  00107A                     ;volt.c: 30:         return(60);
  2260                           	movlw	(03Ch)&0ffh
  2261  00107A  0E3C               	goto	l104
  2262  00107C  EF88  F008         	
  2263                           l934:
  2264  001080                     	goto	l104
  2265  001080  EF88  F008         	
  2266                           l106:
  2267  001084                     	line	31
  2268                           	
  2269                           l936:
  2270  001084                     ;volt.c: 31:     if (143 <= value && value < 147)
  2271                           		movlw	08Fh-1
  2272  001084  0E8E               	cpfsgt	((c:toPercentage@value)),c
  2273  001086  6401               	goto	u201
  2274  001088  EF48  F008         	goto	u200
  2275  00108C  EF4A  F008         
  2276                           u201:
  2277  001090                     	goto	l944
  2278  001090  EF57  F008         u200:
  2279  001094                     	
  2280                           l938:
  2281  001094                     		movlw	093h-0
  2282  001094  0E93               	cpfslt	((c:toPercentage@value)),c
  2283  001096  6001               	goto	u211
  2284  001098  EF50  F008         	goto	u210
  2285  00109C  EF52  F008         
  2286                           u211:
  2287  0010A0                     	goto	l944
  2288  0010A0  EF57  F008         u210:
  2289  0010A4                     	line	32
  2290                           	
  2291                           l940:
  2292  0010A4                     ;volt.c: 32:         return(40);
  2293                           	movlw	(028h)&0ffh
  2294  0010A4  0E28               	goto	l104
  2295  0010A6  EF88  F008         	
  2296                           l942:
  2297  0010AA                     	goto	l104
  2298  0010AA  EF88  F008         	
  2299                           l107:
  2300  0010AE                     	line	33
  2301                           	
  2302                           l944:
  2303  0010AE                     ;volt.c: 33:     if (139 <= value && value < 143)
  2304                           		movlw	08Bh-1
  2305  0010AE  0E8A               	cpfsgt	((c:toPercentage@value)),c
  2306  0010B0  6401               	goto	u221
  2307  0010B2  EF5D  F008         	goto	u220
  2308  0010B6  EF5F  F008         
  2309                           u221:
  2310  0010BA                     	goto	l952
  2311  0010BA  EF6C  F008         u220:
  2312  0010BE                     	
  2313                           l946:
  2314  0010BE                     		movlw	08Fh-0
  2315  0010BE  0E8F               	cpfslt	((c:toPercentage@value)),c
  2316  0010C0  6001               	goto	u231
  2317  0010C2  EF65  F008         	goto	u230
  2318  0010C6  EF67  F008         
  2319                           u231:
  2320  0010CA                     	goto	l952
  2321  0010CA  EF6C  F008         u230:
  2322  0010CE                     	line	34
  2323                           	
  2324                           l948:
  2325  0010CE                     ;volt.c: 34:         return(20);
  2326                           	movlw	(014h)&0ffh
  2327  0010CE  0E14               	goto	l104
  2328  0010D0  EF88  F008         	
  2329                           l950:
  2330  0010D4                     	goto	l104
  2331  0010D4  EF88  F008         	
  2332                           l108:
  2333  0010D8                     	line	35
  2334                           	
  2335                           l952:
  2336  0010D8                     ;volt.c: 35:     if (135 <= value && value < 139)
  2337                           		movlw	087h-1
  2338  0010D8  0E86               	cpfsgt	((c:toPercentage@value)),c
  2339  0010DA  6401               	goto	u241
  2340  0010DC  EF72  F008         	goto	u240
  2341  0010E0  EF74  F008         
  2342                           u241:
  2343  0010E4                     	goto	l962
  2344  0010E4  EF83  F008         u240:
  2345  0010E8                     	
  2346                           l954:
  2347  0010E8                     		movlw	08Bh-0
  2348  0010E8  0E8B               	cpfslt	((c:toPercentage@value)),c
  2349  0010EA  6001               	goto	u251
  2350  0010EC  EF7A  F008         	goto	u250
  2351  0010F0  EF7C  F008         
  2352                           u251:
  2353  0010F4                     	goto	l962
  2354  0010F4  EF83  F008         u250:
  2355  0010F8                     	line	36
  2356                           	
  2357                           l956:
  2358  0010F8                     ;volt.c: 36:         return(10);
  2359                           	movlw	(0Ah)&0ffh
  2360  0010F8  0E0A               	goto	l104
  2361  0010FA  EF88  F008         	
  2362                           l958:
  2363  0010FE                     	goto	l104
  2364  0010FE  EF88  F008         	
  2365                           l960:
  2366  001102                     	goto	l104
  2367  001102  EF88  F008         	line	37
  2368                           ;volt.c: 37:     else return(0);
  2369                           	
  2370                           l109:
  2371  001106                     	
  2372                           l962:
  2373  001106                     	movlw	(0)&0ffh
  2374  001106  0E00               	goto	l104
  2375  001108  EF88  F008         	
  2376                           l964:
  2377  00110C                     	goto	l104
  2378  00110C  EF88  F008         	
  2379                           l110:
  2380  001110                     	line	38
  2381                           	
  2382                           l104:
  2383  001110                     	return	;funcret
  2384  001110  0012               	opt stack 0
  2385                           GLOBAL	__end_of_toPercentage
  2386                           	__end_of_toPercentage:
  2387  001112                     	signat	_toPercentage,4217
  2388                           	global	_readVoltage
  2389                           
  2390 ;; *************** function _readVoltage *****************
  2391 ;; Defined at:
  2392 ;;		line 7 in file "volt.c"
  2393 ;; Parameters:    Size  Location     Type
  2394 ;;		None
  2395 ;; Auto vars:     Size  Location     Type
  2396 ;;		None
  2397 ;; Return value:  Size  Location     Type
  2398 ;;                  1    wreg      unsigned char 
  2399 ;; Registers used:
  2400 ;;		wreg, status,2
  2401 ;; Tracked objects:
  2402 ;;		On entry : 0/0
  2403 ;;		On exit  : 0/0
  2404 ;;		Unchanged: 0/0
  2405 ;; Data sizes:     COMRAM   BANK0   BANK1   BANK2   BANK3   BANK4   BANK5   BANK6   BANK7   BANK8   BANK9  BANK10  BANK1
       1  BANK12  BANK13  BANK14  BANK15
  2406 ;;      Params:         0       0       0       0       0       0       0       0       0       0       0       0       
       0       0       0       0       0
  2407 ;;      Locals:         0       0       0       0       0       0       0       0       0       0       0       0       
       0       0       0       0       0
  2408 ;;      Temps:          0       0       0       0       0       0       0       0       0       0       0       0       
       0       0       0       0       0
  2409 ;;      Totals:         0       0       0       0       0       0       0       0       0       0       0       0       
       0       0       0       0       0
  2410 ;;Total ram usage:        0 bytes
  2411 ;; Hardware stack levels used:    1
  2412 ;; This function calls:
  2413 ;;		Nothing
  2414 ;; This function is called by:
  2415 ;;		_main
  2416 ;; This function uses a non-reentrant model
  2417 ;;
  2418                           psect	text2,class=CODE,space=0,reloc=2,group=0
  2419                           	line	7
  2420                           global __ptext2
  2421                           __ptext2:
  2422  001386                     psect	text2
  2423                           	file	"volt.c"
  2424                           	line	7
  2425                           	global	__size_of_readVoltage
  2426                           	__size_of_readVoltage	equ	__end_of_readVoltage-_readVoltage
  2427  0000                     	
  2428                           _readVoltage:
  2429  001386                     ;incstack = 0
  2430                           	opt	stack 30
  2431                           	line	9
  2432                           	
  2433                           l902:
  2434  001386                     ;volt.c: 9:     TRISAbits.TRISA1 = 1;
  2435                           	bsf	((c:3986)),c,1	;volatile
  2436  001386  8292               	line	10
  2437                           ;volt.c: 10:     ANSELAbits.ANSA1 = 1;
  2438                           	movlb	15	; () banked
  2439  001388  010F               	bsf	((3896))&0ffh,1	;volatile
  2440  00138A  8338               	line	12
  2441                           	
  2442                           l904:; BSR set to: 15
  2443  00138C                     
  2444                           ;volt.c: 12:     ADCON0 = 0b00000101;
  2445                           	movlw	low(05h)
  2446  00138C  0E05               	movwf	((c:4034)),c	;volatile
  2447  00138E  6EC2               	line	13
  2448                           ;volt.c: 13:     ADCON1 = 0b00000000;
  2449                           	movlw	low(0)
  2450  001390  0E00               	movwf	((c:4033)),c	;volatile
  2451  001392  6EC1               	line	14
  2452                           ;volt.c: 14:     ADCON2 = 0b00111110;
  2453                           	movlw	low(03Eh)
  2454  001394  0E3E               	movwf	((c:4032)),c	;volatile
  2455  001396  6EC0               	line	15
  2456                           	
  2457                           l906:; BSR set to: 15
  2458  001398                     
  2459                           ;volt.c: 15:     _delay(10);
  2460                           	opt asmopt_push
  2461                           opt asmopt_off
  2462                           	movlw	3
  2463  001398  0E03               u417:
  2464  00139A                     decfsz	wreg,f
  2465  00139A  2EE8               	bra	u417
  2466  00139C  D7FE               	nop
  2467  00139E  F000               opt asmopt_pop
  2468                           
  2469                           	line	17
  2470                           	
  2471                           l908:
  2472  0013A0                     ;volt.c: 17:     ADCON0bits.GODONE = 1;
  2473                           	bsf	((c:4034)),c,1	;volatile
  2474  0013A0  82C2               	line	18
  2475                           ;volt.c: 18:     while(ADCON0bits.GODONE);
  2476                           	goto	l97
  2477  0013A2  EFD3  F009         	
  2478                           l98:
  2479  0013A6                     	
  2480                           l97:
  2481  0013A6                     	btfsc	((c:4034)),c,1	;volatile
  2482  0013A6  B2C2               	goto	u141
  2483  0013A8  EFD8  F009         	goto	u140
  2484  0013AC  EFDA  F009         u141:
  2485  0013B0                     	goto	l97
  2486  0013B0  EFD3  F009         u140:
  2487  0013B4                     	goto	l910
  2488  0013B4  EFDC  F009         	
  2489                           l99:
  2490  0013B8                     	line	20
  2491                           	
  2492                           l910:
  2493  0013B8                     ;volt.c: 20:     return(ADRESH);
  2494                           	movf	((c:4036)),c,w	;volatile
  2495  0013B8  50C4               	goto	l100
  2496  0013BA  EFDF  F009         	
  2497                           l912:
  2498  0013BE                     	line	22
  2499                           	
  2500                           l100:
  2501  0013BE                     	return	;funcret
  2502  0013BE  0012               	opt stack 0
  2503                           GLOBAL	__end_of_readVoltage
  2504                           	__end_of_readVoltage:
  2505  0013C0                     	signat	_readVoltage,89
  2506                           	global	_UARTWriteByteDec
  2507                           
  2508 ;; *************** function _UARTWriteByteDec *****************
  2509 ;; Defined at:
  2510 ;;		line 93 in file "uart.c"
  2511 ;; Parameters:    Size  Location     Type
  2512 ;;  data            1    wreg     unsigned char 
  2513 ;; Auto vars:     Size  Location     Type
  2514 ;;  data            1   14[COMRAM] unsigned char 
  2515 ;; Return value:  Size  Location     Type
  2516 ;;                  1    wreg      void 
  2517 ;; Registers used:
  2518 ;;		wreg, status,2, status,0, cstack
  2519 ;; Tracked objects:
  2520 ;;		On entry : 0/0
  2521 ;;		On exit  : 0/0
  2522 ;;		Unchanged: 0/0
  2523 ;; Data sizes:     COMRAM   BANK0   BANK1   BANK2   BANK3   BANK4   BANK5   BANK6   BANK7   BANK8   BANK9  BANK10  BANK1
       1  BANK12  BANK13  BANK14  BANK15
  2524 ;;      Params:         0       0       0       0       0       0       0       0       0       0       0       0       
       0       0       0       0       0
  2525 ;;      Locals:         1       0       0       0       0       0       0       0       0       0       0       0       
       0       0       0       0       0
  2526 ;;      Temps:          0       0       0       0       0       0       0       0       0       0       0       0       
       0       0       0       0       0
  2527 ;;      Totals:         1       0       0       0       0       0       0       0       0       0       0       0       
       0       0       0       0       0
  2528 ;;Total ram usage:        1 bytes
  2529 ;; Hardware stack levels used:    1
  2530 ;; Hardware stack levels required when called:    1
  2531 ;; This function calls:
  2532 ;;		_UARTWriteByte
  2533 ;;		___awdiv
  2534 ;;		___awmod
  2535 ;; This function is called by:
  2536 ;;		_main
  2537 ;; This function uses a non-reentrant model
  2538 ;;
  2539                           psect	text3,class=CODE,space=0,reloc=2,group=0
  2540                           	file	"uart.c"
  2541                           	line	93
  2542                           global __ptext3
  2543                           __ptext3:
  2544  0012D6                     psect	text3
  2545                           	file	"uart.c"
  2546                           	line	93
  2547                           	global	__size_of_UARTWriteByteDec
  2548                           	__size_of_UARTWriteByteDec	equ	__end_of_UARTWriteByteDec-_UARTWriteByteDec
  2549  0000                     	
  2550                           _UARTWriteByteDec:
  2551  0012D6                     ;incstack = 0
  2552                           	opt	stack 29
  2553                           ;UARTWriteByteDec@data stored from wreg
  2554                           	movwf	((c:UARTWriteByteDec@data)),c
  2555  0012D6  6E0F               	line	96
  2556                           	
  2557                           l1122:
  2558  0012D8                     ;uart.c: 93: void UARTWriteByteDec(UINT8_T data);uart.c: 94: {;uart.c: 96:     UARTWrite
                                 Byte((data / 100) + '0');
  2559                           	movff	(c:UARTWriteByteDec@data),(c:___awdiv@dividend)
  2560  0012D8  C00F  F007         	clrf	((c:___awdiv@dividend+1)),c
  2561  0012DC  6A08               	movlw	high(064h)
  2562  0012DE  0E00               	movwf	((c:___awdiv@divisor+1)),c
  2563  0012E0  6E0A               	movlw	low(064h)
  2564  0012E2  0E64               	movwf	((c:___awdiv@divisor)),c
  2565  0012E4  6E09               	call	___awdiv	;wreg free
  2566  0012E6  EC89  F008         	movf	(0+?___awdiv),c,w
  2567  0012EA  5007               	addlw	low(030h)
  2568  0012EC  0F30               	
  2569                           	call	_UARTWriteByte
  2570  0012EE  ECFB  F009         	line	97
  2571                           ;uart.c: 97:     UARTWriteByte(((data % 100) / 10) + '0');
  2572                           	movlw	high(064h)
  2573  0012F2  0E00               	movwf	((c:___awmod@divisor+1)),c
  2574  0012F4  6E04               	movlw	low(064h)
  2575  0012F6  0E64               	movwf	((c:___awmod@divisor)),c
  2576  0012F8  6E03               	movff	(c:UARTWriteByteDec@data),(c:___awmod@dividend)
  2577  0012FA  C00F  F001         	clrf	((c:___awmod@dividend+1)),c
  2578  0012FE  6A02               	call	___awmod	;wreg free
  2579  001300  ECFF  F008         	movff	0+?___awmod,(c:___awdiv@dividend)
  2580  001304  C001  F007         	movff	1+?___awmod,(c:___awdiv@dividend+1)
  2581  001308  C002  F008         	movlw	high(0Ah)
  2582  00130C  0E00               	movwf	((c:___awdiv@divisor+1)),c
  2583  00130E  6E0A               	movlw	low(0Ah)
  2584  001310  0E0A               	movwf	((c:___awdiv@divisor)),c
  2585  001312  6E09               	call	___awdiv	;wreg free
  2586  001314  EC89  F008         	movf	(0+?___awdiv),c,w
  2587  001318  5007               	addlw	low(030h)
  2588  00131A  0F30               	
  2589                           	call	_UARTWriteByte
  2590  00131C  ECFB  F009         	line	98
  2591                           ;uart.c: 98:     UARTWriteByte((data % 10) + '0');
  2592                           	movff	(c:UARTWriteByteDec@data),(c:___awmod@dividend)
  2593  001320  C00F  F001         	clrf	((c:___awmod@dividend+1)),c
  2594  001324  6A02               	movlw	high(0Ah)
  2595  001326  0E00               	movwf	((c:___awmod@divisor+1)),c
  2596  001328  6E04               	movlw	low(0Ah)
  2597  00132A  0E0A               	movwf	((c:___awmod@divisor)),c
  2598  00132C  6E03               	call	___awmod	;wreg free
  2599  00132E  ECFF  F008         	movf	(0+?___awmod),c,w
  2600  001332  5001               	addlw	low(030h)
  2601  001334  0F30               	
  2602                           	call	_UARTWriteByte
  2603  001336  ECFB  F009         	line	100
  2604                           	
  2605                           l1124:
  2606  00133A                     ;uart.c: 100:     UARTWriteByte(0x0D);
  2607                           	movlw	(0Dh)&0ffh
  2608  00133A  0E0D               	
  2609                           	call	_UARTWriteByte
  2610  00133C  ECFB  F009         	line	101
  2611                           	
  2612                           l1126:
  2613  001340                     ;uart.c: 101:     UARTWriteByte(0x0A);
  2614                           	movlw	(0Ah)&0ffh
  2615  001340  0E0A               	
  2616                           	call	_UARTWriteByte
  2617  001342  ECFB  F009         	line	102
  2618                           	
  2619                           l78:
  2620  001346                     	return	;funcret
  2621  001346  0012               	opt stack 0
  2622                           GLOBAL	__end_of_UARTWriteByteDec
  2623                           	__end_of_UARTWriteByteDec:
  2624  001348                     	signat	_UARTWriteByteDec,4217
  2625                           	global	___awmod
  2626                           
  2627 ;; *************** function ___awmod *****************
  2628 ;; Defined at:
  2629 ;;		line 7 in file "/opt/microchip/xc8/v2.00/pic/sources/c99/common/awmod.c"
  2630 ;; Parameters:    Size  Location     Type
  2631 ;;  dividend        2    0[COMRAM] int 
  2632 ;;  divisor         2    2[COMRAM] int 
  2633 ;; Auto vars:     Size  Location     Type
  2634 ;;  sign            1    5[COMRAM] unsigned char 
  2635 ;;  counter         1    4[COMRAM] unsigned char 
  2636 ;; Return value:  Size  Location     Type
  2637 ;;                  2    0[COMRAM] int 
  2638 ;; Registers used:
  2639 ;;		wreg, status,2, status,0
  2640 ;; Tracked objects:
  2641 ;;		On entry : 0/0
  2642 ;;		On exit  : 0/0
  2643 ;;		Unchanged: 0/0
  2644 ;; Data sizes:     COMRAM   BANK0   BANK1   BANK2   BANK3   BANK4   BANK5   BANK6   BANK7   BANK8   BANK9  BANK10  BANK1
       1  BANK12  BANK13  BANK14  BANK15
  2645 ;;      Params:         4       0       0       0       0       0       0       0       0       0       0       0       
       0       0       0       0       0
  2646 ;;      Locals:         2       0       0       0       0       0       0       0       0       0       0       0       
       0       0       0       0       0
  2647 ;;      Temps:          0       0       0       0       0       0       0       0       0       0       0       0       
       0       0       0       0       0
  2648 ;;      Totals:         6       0       0       0       0       0       0       0       0       0       0       0       
       0       0       0       0       0
  2649 ;;Total ram usage:        6 bytes
  2650 ;; Hardware stack levels used:    1
  2651 ;; This function calls:
  2652 ;;		Nothing
  2653 ;; This function is called by:
  2654 ;;		_UARTWriteByteDec
  2655 ;; This function uses a non-reentrant model
  2656 ;;
  2657                           psect	text4,class=CODE,space=0,reloc=2,group=1
  2658                           	file	"/opt/microchip/xc8/v2.00/pic/sources/c99/common/awmod.c"
  2659                           	line	7
  2660                           global __ptext4
  2661                           __ptext4:
  2662  0011FE                     psect	text4
  2663                           	file	"/opt/microchip/xc8/v2.00/pic/sources/c99/common/awmod.c"
  2664                           	line	7
  2665                           	global	__size_of___awmod
  2666                           	__size_of___awmod	equ	__end_of___awmod-___awmod
  2667  0000                     	
  2668                           ___awmod:
  2669  0011FE                     ;incstack = 0
  2670                           	opt	stack 29
  2671                           	line	12
  2672                           	
  2673                           l1054:
  2674  0011FE                     	movlw	low(0)
  2675  0011FE  0E00               	movwf	((c:___awmod@sign)),c
  2676  001200  6E06               	line	13
  2677                           	
  2678                           l1056:
  2679  001202                     	btfsc	((c:___awmod@dividend+1)),c,7
  2680  001202  BE02               	goto	u340
  2681  001204  EF08  F009         	goto	u341
  2682  001208  EF06  F009         
  2683                           u341:
  2684  00120C                     	goto	l1062
  2685  00120C  EF10  F009         u340:
  2686  001210                     	line	14
  2687                           	
  2688                           l1058:
  2689  001210                     	negf	((c:___awmod@dividend)),c
  2690  001210  6C01               	comf	((c:___awmod@dividend+1)),c
  2691  001212  1E02               	btfsc	status,0
  2692  001214  B0D8               	incf	((c:___awmod@dividend+1)),c
  2693  001216  2A02               	line	15
  2694                           	
  2695                           l1060:
  2696  001218                     	movlw	low(01h)
  2697  001218  0E01               	movwf	((c:___awmod@sign)),c
  2698  00121A  6E06               	goto	l1062
  2699  00121C  EF10  F009         	line	16
  2700                           	
  2701                           l347:
  2702  001220                     	line	17
  2703                           	
  2704                           l1062:
  2705  001220                     	btfsc	((c:___awmod@divisor+1)),c,7
  2706  001220  BE04               	goto	u350
  2707  001222  EF17  F009         	goto	u351
  2708  001226  EF15  F009         
  2709                           u351:
  2710  00122A                     	goto	l1066
  2711  00122A  EF1D  F009         u350:
  2712  00122E                     	line	18
  2713                           	
  2714                           l1064:
  2715  00122E                     	negf	((c:___awmod@divisor)),c
  2716  00122E  6C03               	comf	((c:___awmod@divisor+1)),c
  2717  001230  1E04               	btfsc	status,0
  2718  001232  B0D8               	incf	((c:___awmod@divisor+1)),c
  2719  001234  2A04               	goto	l1066
  2720  001236  EF1D  F009         	
  2721                           l348:
  2722  00123A                     	line	19
  2723                           	
  2724                           l1066:
  2725  00123A                     	movf	((c:___awmod@divisor)),c,w
  2726  00123A  5003               iorwf	((c:___awmod@divisor+1)),c,w
  2727  00123C  1004               	btfsc	status,2
  2728  00123E  B4D8               	goto	u361
  2729  001240  EF24  F009         	goto	u360
  2730  001244  EF26  F009         
  2731                           u361:
  2732  001248                     	goto	l1082
  2733  001248  EF56  F009         u360:
  2734  00124C                     	line	20
  2735                           	
  2736                           l1068:
  2737  00124C                     	movlw	low(01h)
  2738  00124C  0E01               	movwf	((c:___awmod@counter)),c
  2739  00124E  6E05               	line	21
  2740                           	goto	l1072
  2741  001250  EF30  F009         	
  2742                           l351:
  2743  001254                     	line	22
  2744                           	
  2745                           l1070:
  2746  001254                     	bcf	status,0
  2747  001254  90D8               	rlcf	((c:___awmod@divisor)),c
  2748  001256  3603               	rlcf	((c:___awmod@divisor+1)),c
  2749  001258  3604               	line	23
  2750                           	incf	((c:___awmod@counter)),c
  2751  00125A  2A05               	goto	l1072
  2752  00125C  EF30  F009         	line	24
  2753                           	
  2754                           l350:
  2755  001260                     	line	21
  2756                           	
  2757                           l1072:
  2758  001260                     	
  2759                           	btfss	((c:___awmod@divisor+1)),c,(15)&7
  2760  001260  AE04               	goto	u371
  2761  001262  EF35  F009         	goto	u370
  2762  001266  EF37  F009         u371:
  2763  00126A                     	goto	l1070
  2764  00126A  EF2A  F009         u370:
  2765  00126E                     	goto	l1074
  2766  00126E  EF3B  F009         	
  2767                           l352:
  2768  001272                     	goto	l1074
  2769  001272  EF3B  F009         	line	25
  2770                           	
  2771                           l353:
  2772  001276                     	line	26
  2773                           	
  2774                           l1074:
  2775  001276                     		movf	((c:___awmod@divisor)),c,w
  2776  001276  5003               	subwf	((c:___awmod@dividend)),c,w
  2777  001278  5C01               	movf	((c:___awmod@divisor+1)),c,w
  2778  00127A  5004               	subwfb	((c:___awmod@dividend+1)),c,w
  2779  00127C  5802               	btfss	status,0
  2780  00127E  A0D8               	goto	u381
  2781  001280  EF44  F009         	goto	u380
  2782  001284  EF46  F009         
  2783                           u381:
  2784  001288                     	goto	l1078
  2785  001288  EF4C  F009         u380:
  2786  00128C                     	line	27
  2787                           	
  2788                           l1076:
  2789  00128C                     	movf	((c:___awmod@divisor)),c,w
  2790  00128C  5003               	subwf	((c:___awmod@dividend)),c
  2791  00128E  5E01               	movf	((c:___awmod@divisor+1)),c,w
  2792  001290  5004               	subwfb	((c:___awmod@dividend+1)),c
  2793  001292  5A02               
  2794                           	goto	l1078
  2795  001294  EF4C  F009         	
  2796                           l354:
  2797  001298                     	line	28
  2798                           	
  2799                           l1078:
  2800  001298                     	bcf	status,0
  2801  001298  90D8               	rrcf	((c:___awmod@divisor+1)),c
  2802  00129A  3204               	rrcf	((c:___awmod@divisor)),c
  2803  00129C  3203               	line	29
  2804                           	
  2805                           l1080:
  2806  00129E                     	decfsz	((c:___awmod@counter)),c
  2807  00129E  2E05               	
  2808                           	goto	l1074
  2809  0012A0  EF3B  F009         	goto	l1082
  2810  0012A4  EF56  F009         	
  2811                           l355:
  2812  0012A8                     	goto	l1082
  2813  0012A8  EF56  F009         	line	30
  2814                           	
  2815                           l349:
  2816  0012AC                     	line	31
  2817                           	
  2818                           l1082:
  2819  0012AC                     	movf	((c:___awmod@sign)),c,w
  2820  0012AC  5006               	btfsc	status,2
  2821  0012AE  B4D8               	goto	u391
  2822  0012B0  EF5C  F009         	goto	u390
  2823  0012B4  EF5E  F009         u391:
  2824  0012B8                     	goto	l1086
  2825  0012B8  EF64  F009         u390:
  2826  0012BC                     	line	32
  2827                           	
  2828                           l1084:
  2829  0012BC                     	negf	((c:___awmod@dividend)),c
  2830  0012BC  6C01               	comf	((c:___awmod@dividend+1)),c
  2831  0012BE  1E02               	btfsc	status,0
  2832  0012C0  B0D8               	incf	((c:___awmod@dividend+1)),c
  2833  0012C2  2A02               	goto	l1086
  2834  0012C4  EF64  F009         	
  2835                           l356:
  2836  0012C8                     	line	33
  2837                           	
  2838                           l1086:
  2839  0012C8                     	movff	(c:___awmod@dividend),(c:?___awmod)
  2840  0012C8  C001  F001         	movff	(c:___awmod@dividend+1),(c:?___awmod+1)
  2841  0012CC  C002  F002         	goto	l357
  2842  0012D0  EF6A  F009         	
  2843                           l1088:
  2844  0012D4                     	line	34
  2845                           	
  2846                           l357:
  2847  0012D4                     	return	;funcret
  2848  0012D4  0012               	opt stack 0
  2849                           GLOBAL	__end_of___awmod
  2850                           	__end_of___awmod:
  2851  0012D6                     	signat	___awmod,8314
  2852                           	global	___awdiv
  2853                           
  2854 ;; *************** function ___awdiv *****************
  2855 ;; Defined at:
  2856 ;;		line 7 in file "/opt/microchip/xc8/v2.00/pic/sources/c99/common/awdiv.c"
  2857 ;; Parameters:    Size  Location     Type
  2858 ;;  dividend        2    6[COMRAM] int 
  2859 ;;  divisor         2    8[COMRAM] int 
  2860 ;; Auto vars:     Size  Location     Type
  2861 ;;  quotient        2   12[COMRAM] int 
  2862 ;;  sign            1   11[COMRAM] unsigned char 
  2863 ;;  counter         1   10[COMRAM] unsigned char 
  2864 ;; Return value:  Size  Location     Type
  2865 ;;                  2    6[COMRAM] int 
  2866 ;; Registers used:
  2867 ;;		wreg, status,2, status,0
  2868 ;; Tracked objects:
  2869 ;;		On entry : 0/0
  2870 ;;		On exit  : 0/0
  2871 ;;		Unchanged: 0/0
  2872 ;; Data sizes:     COMRAM   BANK0   BANK1   BANK2   BANK3   BANK4   BANK5   BANK6   BANK7   BANK8   BANK9  BANK10  BANK1
       1  BANK12  BANK13  BANK14  BANK15
  2873 ;;      Params:         4       0       0       0       0       0       0       0       0       0       0       0       
       0       0       0       0       0
  2874 ;;      Locals:         4       0       0       0       0       0       0       0       0       0       0       0       
       0       0       0       0       0
  2875 ;;      Temps:          0       0       0       0       0       0       0       0       0       0       0       0       
       0       0       0       0       0
  2876 ;;      Totals:         8       0       0       0       0       0       0       0       0       0       0       0       
       0       0       0       0       0
  2877 ;;Total ram usage:        8 bytes
  2878 ;; Hardware stack levels used:    1
  2879 ;; This function calls:
  2880 ;;		Nothing
  2881 ;; This function is called by:
  2882 ;;		_UARTWriteByteDec
  2883 ;;		_UARTWriteByteHex
  2884 ;; This function uses a non-reentrant model
  2885 ;;
  2886                           psect	text5,class=CODE,space=0,reloc=2,group=1
  2887                           	file	"/opt/microchip/xc8/v2.00/pic/sources/c99/common/awdiv.c"
  2888                           	line	7
  2889                           global __ptext5
  2890                           __ptext5:
  2891  001112                     psect	text5
  2892                           	file	"/opt/microchip/xc8/v2.00/pic/sources/c99/common/awdiv.c"
  2893                           	line	7
  2894                           	global	__size_of___awdiv
  2895                           	__size_of___awdiv	equ	__end_of___awdiv-___awdiv
  2896  0000                     	
  2897                           ___awdiv:
  2898  001112                     ;incstack = 0
  2899                           	opt	stack 29
  2900                           	line	13
  2901                           	
  2902                           l1010:
  2903  001112                     	movlw	low(0)
  2904  001112  0E00               	movwf	((c:___awdiv@sign)),c
  2905  001114  6E0C               	line	14
  2906                           	
  2907                           l1012:
  2908  001116                     	btfsc	((c:___awdiv@divisor+1)),c,7
  2909  001116  BE0A               	goto	u280
  2910  001118  EF92  F008         	goto	u281
  2911  00111C  EF90  F008         
  2912                           u281:
  2913  001120                     	goto	l1018
  2914  001120  EF9A  F008         u280:
  2915  001124                     	line	15
  2916                           	
  2917                           l1014:
  2918  001124                     	negf	((c:___awdiv@divisor)),c
  2919  001124  6C09               	comf	((c:___awdiv@divisor+1)),c
  2920  001126  1E0A               	btfsc	status,0
  2921  001128  B0D8               	incf	((c:___awdiv@divisor+1)),c
  2922  00112A  2A0A               	line	16
  2923                           	
  2924                           l1016:
  2925  00112C                     	movlw	low(01h)
  2926  00112C  0E01               	movwf	((c:___awdiv@sign)),c
  2927  00112E  6E0C               	goto	l1018
  2928  001130  EF9A  F008         	line	17
  2929                           	
  2930                           l334:
  2931  001134                     	line	18
  2932                           	
  2933                           l1018:
  2934  001134                     	btfsc	((c:___awdiv@dividend+1)),c,7
  2935  001134  BE08               	goto	u290
  2936  001136  EFA1  F008         	goto	u291
  2937  00113A  EF9F  F008         
  2938                           u291:
  2939  00113E                     	goto	l1024
  2940  00113E  EFA9  F008         u290:
  2941  001142                     	line	19
  2942                           	
  2943                           l1020:
  2944  001142                     	negf	((c:___awdiv@dividend)),c
  2945  001142  6C07               	comf	((c:___awdiv@dividend+1)),c
  2946  001144  1E08               	btfsc	status,0
  2947  001146  B0D8               	incf	((c:___awdiv@dividend+1)),c
  2948  001148  2A08               	line	20
  2949                           	
  2950                           l1022:
  2951  00114A                     	movlw	(01h)&0ffh
  2952  00114A  0E01               	xorwf	((c:___awdiv@sign)),c
  2953  00114C  1A0C               	goto	l1024
  2954  00114E  EFA9  F008         	line	21
  2955                           	
  2956                           l335:
  2957  001152                     	line	22
  2958                           	
  2959                           l1024:
  2960  001152                     	movlw	high(0)
  2961  001152  0E00               	movwf	((c:___awdiv@quotient+1)),c
  2962  001154  6E0E               	movlw	low(0)
  2963  001156  0E00               	movwf	((c:___awdiv@quotient)),c
  2964  001158  6E0D               	line	23
  2965                           	
  2966                           l1026:
  2967  00115A                     	movf	((c:___awdiv@divisor)),c,w
  2968  00115A  5009               iorwf	((c:___awdiv@divisor+1)),c,w
  2969  00115C  100A               	btfsc	status,2
  2970  00115E  B4D8               	goto	u301
  2971  001160  EFB4  F008         	goto	u300
  2972  001164  EFB6  F008         
  2973                           u301:
  2974  001168                     	goto	l1046
  2975  001168  EFEA  F008         u300:
  2976  00116C                     	line	24
  2977                           	
  2978                           l1028:
  2979  00116C                     	movlw	low(01h)
  2980  00116C  0E01               	movwf	((c:___awdiv@counter)),c
  2981  00116E  6E0B               	line	25
  2982                           	goto	l1032
  2983  001170  EFC0  F008         	
  2984                           l338:
  2985  001174                     	line	26
  2986                           	
  2987                           l1030:
  2988  001174                     	bcf	status,0
  2989  001174  90D8               	rlcf	((c:___awdiv@divisor)),c
  2990  001176  3609               	rlcf	((c:___awdiv@divisor+1)),c
  2991  001178  360A               	line	27
  2992                           	incf	((c:___awdiv@counter)),c
  2993  00117A  2A0B               	goto	l1032
  2994  00117C  EFC0  F008         	line	28
  2995                           	
  2996                           l337:
  2997  001180                     	line	25
  2998                           	
  2999                           l1032:
  3000  001180                     	
  3001                           	btfss	((c:___awdiv@divisor+1)),c,(15)&7
  3002  001180  AE0A               	goto	u311
  3003  001182  EFC5  F008         	goto	u310
  3004  001186  EFC7  F008         u311:
  3005  00118A                     	goto	l1030
  3006  00118A  EFBA  F008         u310:
  3007  00118E                     	goto	l1034
  3008  00118E  EFCB  F008         	
  3009                           l339:
  3010  001192                     	goto	l1034
  3011  001192  EFCB  F008         	line	29
  3012                           	
  3013                           l340:
  3014  001196                     	line	30
  3015                           	
  3016                           l1034:
  3017  001196                     	bcf	status,0
  3018  001196  90D8               	rlcf	((c:___awdiv@quotient)),c
  3019  001198  360D               	rlcf	((c:___awdiv@quotient+1)),c
  3020  00119A  360E               	line	31
  3021                           	
  3022                           l1036:
  3023  00119C                     		movf	((c:___awdiv@divisor)),c,w
  3024  00119C  5009               	subwf	((c:___awdiv@dividend)),c,w
  3025  00119E  5C07               	movf	((c:___awdiv@divisor+1)),c,w
  3026  0011A0  500A               	subwfb	((c:___awdiv@dividend+1)),c,w
  3027  0011A2  5808               	btfss	status,0
  3028  0011A4  A0D8               	goto	u321
  3029  0011A6  EFD7  F008         	goto	u320
  3030  0011AA  EFD9  F008         
  3031                           u321:
  3032  0011AE                     	goto	l1042
  3033  0011AE  EFE0  F008         u320:
  3034  0011B2                     	line	32
  3035                           	
  3036                           l1038:
  3037  0011B2                     	movf	((c:___awdiv@divisor)),c,w
  3038  0011B2  5009               	subwf	((c:___awdiv@dividend)),c
  3039  0011B4  5E07               	movf	((c:___awdiv@divisor+1)),c,w
  3040  0011B6  500A               	subwfb	((c:___awdiv@dividend+1)),c
  3041  0011B8  5A08               
  3042                           	line	33
  3043                           	
  3044                           l1040:
  3045  0011BA                     	bsf	(0+(0/8)+(c:___awdiv@quotient)),c,(0)&7
  3046  0011BA  800D               	goto	l1042
  3047  0011BC  EFE0  F008         	line	34
  3048                           	
  3049                           l341:
  3050  0011C0                     	line	35
  3051                           	
  3052                           l1042:
  3053  0011C0                     	bcf	status,0
  3054  0011C0  90D8               	rrcf	((c:___awdiv@divisor+1)),c
  3055  0011C2  320A               	rrcf	((c:___awdiv@divisor)),c
  3056  0011C4  3209               	line	36
  3057                           	
  3058                           l1044:
  3059  0011C6                     	decfsz	((c:___awdiv@counter)),c
  3060  0011C6  2E0B               	
  3061                           	goto	l1034
  3062  0011C8  EFCB  F008         	goto	l1046
  3063  0011CC  EFEA  F008         	
  3064                           l342:
  3065  0011D0                     	goto	l1046
  3066  0011D0  EFEA  F008         	line	37
  3067                           	
  3068                           l336:
  3069  0011D4                     	line	38
  3070                           	
  3071                           l1046:
  3072  0011D4                     	movf	((c:___awdiv@sign)),c,w
  3073  0011D4  500C               	btfsc	status,2
  3074  0011D6  B4D8               	goto	u331
  3075  0011D8  EFF0  F008         	goto	u330
  3076  0011DC  EFF2  F008         u331:
  3077  0011E0                     	goto	l1050
  3078  0011E0  EFF8  F008         u330:
  3079  0011E4                     	line	39
  3080                           	
  3081                           l1048:
  3082  0011E4                     	negf	((c:___awdiv@quotient)),c
  3083  0011E4  6C0D               	comf	((c:___awdiv@quotient+1)),c
  3084  0011E6  1E0E               	btfsc	status,0
  3085  0011E8  B0D8               	incf	((c:___awdiv@quotient+1)),c
  3086  0011EA  2A0E               	goto	l1050
  3087  0011EC  EFF8  F008         	
  3088                           l343:
  3089  0011F0                     	line	40
  3090                           	
  3091                           l1050:
  3092  0011F0                     	movff	(c:___awdiv@quotient),(c:?___awdiv)
  3093  0011F0  C00D  F007         	movff	(c:___awdiv@quotient+1),(c:?___awdiv+1)
  3094  0011F4  C00E  F008         	goto	l344
  3095  0011F8  EFFE  F008         	
  3096                           l1052:
  3097  0011FC                     	line	41
  3098                           	
  3099                           l344:
  3100  0011FC                     	return	;funcret
  3101  0011FC  0012               	opt stack 0
  3102                           GLOBAL	__end_of___awdiv
  3103                           	__end_of___awdiv:
  3104  0011FE                     	signat	___awdiv,8314
  3105                           	global	_UARTWriteByte
  3106                           
  3107 ;; *************** function _UARTWriteByte *****************
  3108 ;; Defined at:
  3109 ;;		line 52 in file "uart.c"
  3110 ;; Parameters:    Size  Location     Type
  3111 ;;  data            1    wreg     unsigned char 
  3112 ;; Auto vars:     Size  Location     Type
  3113 ;;  data            1    0[COMRAM] unsigned char 
  3114 ;; Return value:  Size  Location     Type
  3115 ;;                  1    wreg      void 
  3116 ;; Registers used:
  3117 ;;		wreg
  3118 ;; Tracked objects:
  3119 ;;		On entry : 0/0
  3120 ;;		On exit  : 0/0
  3121 ;;		Unchanged: 0/0
  3122 ;; Data sizes:     COMRAM   BANK0   BANK1   BANK2   BANK3   BANK4   BANK5   BANK6   BANK7   BANK8   BANK9  BANK10  BANK1
       1  BANK12  BANK13  BANK14  BANK15
  3123 ;;      Params:         0       0       0       0       0       0       0       0       0       0       0       0       
       0       0       0       0       0
  3124 ;;      Locals:         1       0       0       0       0       0       0       0       0       0       0       0       
       0       0       0       0       0
  3125 ;;      Temps:          0       0       0       0       0       0       0       0       0       0       0       0       
       0       0       0       0       0
  3126 ;;      Totals:         1       0       0       0       0       0       0       0       0       0       0       0       
       0       0       0       0       0
  3127 ;;Total ram usage:        1 bytes
  3128 ;; Hardware stack levels used:    1
  3129 ;; This function calls:
  3130 ;;		Nothing
  3131 ;; This function is called by:
  3132 ;;		_UARTWriteByteDec
  3133 ;;		_UARTWriteStr
  3134 ;;		_UARTWriteStrLn
  3135 ;;		_UARTWriteByteHex
  3136 ;; This function uses a non-reentrant model
  3137 ;;
  3138                           psect	text6,class=CODE,space=0,reloc=2,group=0
  3139                           	file	"uart.c"
  3140                           	line	52
  3141                           global __ptext6
  3142                           __ptext6:
  3143  0013F6                     psect	text6
  3144                           	file	"uart.c"
  3145                           	line	52
  3146                           	global	__size_of_UARTWriteByte
  3147                           	__size_of_UARTWriteByte	equ	__end_of_UARTWriteByte-_UARTWriteByte
  3148  0000                     	
  3149                           _UARTWriteByte:
  3150  0013F6                     ;incstack = 0
  3151                           	opt	stack 29
  3152                           ;UARTWriteByte@data stored from wreg
  3153                           	movwf	((c:UARTWriteByte@data)),c
  3154  0013F6  6E01               	line	54
  3155                           	
  3156                           l786:
  3157  0013F8                     ;uart.c: 54:     while (TXSTA1bits.TRMT == 0);
  3158                           	goto	l54
  3159  0013F8  EFFE  F009         	
  3160                           l55:
  3161  0013FC                     	
  3162                           l54:
  3163  0013FC                     	btfss	((c:4012)),c,1	;volatile
  3164  0013FC  A2AC               	goto	u11
  3165  0013FE  EF03  F00A         	goto	u10
  3166  001402  EF05  F00A         u11:
  3167  001406                     	goto	l54
  3168  001406  EFFE  F009         u10:
  3169  00140A                     	goto	l788
  3170  00140A  EF07  F00A         	
  3171                           l56:
  3172  00140E                     	line	56
  3173                           	
  3174                           l788:
  3175  00140E                     ;uart.c: 56:     TXREG1 = data;
  3176                           	movff	(c:UARTWriteByte@data),(c:4013)	;volatile
  3177  00140E  C001  FFAD         	line	57
  3178                           	
  3179                           l57:
  3180  001412                     	return	;funcret
  3181  001412  0012               	opt stack 0
  3182                           GLOBAL	__end_of_UARTWriteByte
  3183                           	__end_of_UARTWriteByte:
  3184  001414                     	signat	_UARTWriteByte,4217
  3185                           	global	_UARTInit
  3186                           
  3187 ;; *************** function _UARTInit *****************
  3188 ;; Defined at:
  3189 ;;		line 16 in file "uart.c"
  3190 ;; Parameters:    Size  Location     Type
  3191 ;;  baudRate        2    0[COMRAM] unsigned int 
  3192 ;; Auto vars:     Size  Location     Type
  3193 ;;		None
  3194 ;; Return value:  Size  Location     Type
  3195 ;;                  1    wreg      void 
  3196 ;; Registers used:
  3197 ;;		wreg, status,2
  3198 ;; Tracked objects:
  3199 ;;		On entry : 0/0
  3200 ;;		On exit  : 0/0
  3201 ;;		Unchanged: 0/0
  3202 ;; Data sizes:     COMRAM   BANK0   BANK1   BANK2   BANK3   BANK4   BANK5   BANK6   BANK7   BANK8   BANK9  BANK10  BANK1
       1  BANK12  BANK13  BANK14  BANK15
  3203 ;;      Params:         2       0       0       0       0       0       0       0       0       0       0       0       
       0       0       0       0       0
  3204 ;;      Locals:         0       0       0       0       0       0       0       0       0       0       0       0       
       0       0       0       0       0
  3205 ;;      Temps:          0       0       0       0       0       0       0       0       0       0       0       0       
       0       0       0       0       0
  3206 ;;      Totals:         2       0       0       0       0       0       0       0       0       0       0       0       
       0       0       0       0       0
  3207 ;;Total ram usage:        2 bytes
  3208 ;; Hardware stack levels used:    1
  3209 ;; This function calls:
  3210 ;;		Nothing
  3211 ;; This function is called by:
  3212 ;;		_main
  3213 ;; This function uses a non-reentrant model
  3214 ;;
  3215                           psect	text7,class=CODE,space=0,reloc=2,group=0
  3216                           	line	16
  3217                           global __ptext7
  3218                           __ptext7:
  3219  0013C0                     psect	text7
  3220                           	file	"uart.c"
  3221                           	line	16
  3222                           	global	__size_of_UARTInit
  3223                           	__size_of_UARTInit	equ	__end_of_UARTInit-_UARTInit
  3224  0000                     	
  3225                           _UARTInit:
  3226  0013C0                     ;incstack = 0
  3227                           	opt	stack 30
  3228                           	line	18
  3229                           	
  3230                           l1090:
  3231  0013C0                     ;uart.c: 18:     TRISCbits.TRISC6 = 1;
  3232                           	bsf	((c:3988)),c,6	;volatile
  3233  0013C0  8C94               	line	19
  3234                           ;uart.c: 19:     TRISCbits.TRISC7 = 1;
  3235                           	bsf	((c:3988)),c,7	;volatile
  3236  0013C2  8E94               	line	20
  3237                           ;uart.c: 20:     ANSELCbits.ANSC7 = 0;
  3238                           	movlb	15	; () banked
  3239  0013C4  010F               	bcf	((3898))&0ffh,7	;volatile
  3240  0013C6  9F3A               	line	22
  3241                           	
  3242                           l1092:; BSR set to: 15
  3243  0013C8                     
  3244                           ;uart.c: 22:     TXSTA1 = 0;
  3245                           	movlw	low(0)
  3246  0013C8  0E00               	movwf	((c:4012)),c	;volatile
  3247  0013CA  6EAC               	line	23
  3248                           ;uart.c: 23:     RCSTA1 = 0;
  3249                           	movlw	low(0)
  3250  0013CC  0E00               	movwf	((c:4011)),c	;volatile
  3251  0013CE  6EAB               	line	25
  3252                           	
  3253                           l1094:; BSR set to: 15
  3254  0013D0                     
  3255                           ;uart.c: 25:     TXSTA1bits.SYNC = 0;
  3256                           	bcf	((c:4012)),c,4	;volatile
  3257  0013D0  98AC               	line	26
  3258                           	
  3259                           l1096:; BSR set to: 15
  3260  0013D2                     
  3261                           ;uart.c: 26:     TXSTA1bits.TX9 = 0;
  3262                           	bcf	((c:4012)),c,6	;volatile
  3263  0013D2  9CAC               	line	27
  3264                           	
  3265                           l1098:; BSR set to: 15
  3266  0013D4                     
  3267                           ;uart.c: 27:     RCSTA1bits.RX9 = 0;
  3268                           	bcf	((c:4011)),c,6	;volatile
  3269  0013D4  9CAB               	line	28
  3270                           	
  3271                           l1100:; BSR set to: 15
  3272  0013D6                     
  3273                           ;uart.c: 28:     RCSTA1bits.CREN = 1;
  3274                           	bsf	((c:4011)),c,4	;volatile
  3275  0013D6  88AB               	line	29
  3276                           	
  3277                           l1102:; BSR set to: 15
  3278  0013D8                     
  3279                           ;uart.c: 29:     RCSTA1bits.ADDEN = 0;
  3280                           	bcf	((c:4011)),c,3	;volatile
  3281  0013D8  96AB               	line	31
  3282                           	
  3283                           l1104:; BSR set to: 15
  3284  0013DA                     
  3285                           ;uart.c: 31:     PIE1bits.RC1IE = 1;
  3286                           	bsf	((c:3997)),c,5	;volatile
  3287  0013DA  8A9D               	line	32
  3288                           	
  3289                           l1106:; BSR set to: 15
  3290  0013DC                     
  3291                           ;uart.c: 32:     PIE1bits.TX1IE = 0;
  3292                           	bcf	((c:3997)),c,4	;volatile
  3293  0013DC  989D               	line	34
  3294                           	
  3295                           l1108:; BSR set to: 15
  3296  0013DE                     
  3297                           ;uart.c: 34:     TXSTA1bits.BRGH = 1;
  3298                           	bsf	((c:4012)),c,2	;volatile
  3299  0013DE  84AC               	line	35
  3300                           	
  3301                           l1110:; BSR set to: 15
  3302  0013E0                     
  3303                           ;uart.c: 35:     BAUDCON1bits.BRG16 = 1;
  3304                           	bsf	((c:4024)),c,3	;volatile
  3305  0013E0  86B8               	line	38
  3306                           ;uart.c: 38:     SPBRG1 = 12;
  3307                           	movlw	low(0Ch)
  3308  0013E2  0E0C               	movwf	((c:4015)),c	;volatile
  3309  0013E4  6EAF               	line	39
  3310                           ;uart.c: 39:     SPBRGH1 = 0;
  3311                           	movlw	low(0)
  3312  0013E6  0E00               	movwf	((c:4016)),c	;volatile
  3313  0013E8  6EB0               	line	43
  3314                           	
  3315                           l1112:; BSR set to: 15
  3316  0013EA                     
  3317                           ;uart.c: 43:     TXSTA1bits.TXEN = 1;
  3318                           	bsf	((c:4012)),c,5	;volatile
  3319  0013EA  8AAC               	line	44
  3320                           	
  3321                           l1114:; BSR set to: 15
  3322  0013EC                     
  3323                           ;uart.c: 44:     RCSTA1bits.SPEN = 1;
  3324                           	bsf	((c:4011)),c,7	;volatile
  3325  0013EC  8EAB               	line	46
  3326                           	
  3327                           l1116:; BSR set to: 15
  3328  0013EE                     
  3329                           ;uart.c: 46:     RCIF = 0;
  3330                           	bcf	c:(31989/8),(31989)&7	;volatile
  3331  0013EE  9A9E               	line	48
  3332                           	
  3333                           l1118:; BSR set to: 15
  3334  0013F0                     
  3335                           ;uart.c: 48:     RCIE = 1;
  3336                           	bsf	c:(31981/8),(31981)&7	;volatile
  3337  0013F0  8A9D               	line	49
  3338                           	
  3339                           l1120:; BSR set to: 15
  3340  0013F2                     
  3341                           ;uart.c: 49:     PEIE = 1;
  3342                           	bsf	c:(32662/8),(32662)&7	;volatile
  3343  0013F2  8CF2               	line	50
  3344                           	
  3345                           l51:; BSR set to: 15
  3346  0013F4                     
  3347                           	return	;funcret
  3348  0013F4  0012               	opt stack 0
  3349                           GLOBAL	__end_of_UARTInit
  3350                           	__end_of_UARTInit:
  3351  0013F6                     	signat	_UARTInit,4217
  3352                           psect	smallconst
  3353                           	db 0	; dummy byte at the end
  3354  001012  00                 	global	__smallconst
  3355                           	global	__mediumconst
  3356                           	GLOBAL	__activetblptr
  3357                           __activetblptr	EQU	1
  3358  0000                     	psect	intsave_regs,class=BIGRAM,space=1,noexec
  3359                           	PSECT	rparam,class=COMRAM,space=1,noexec
  3360                           	GLOBAL	__Lrparam
  3361                           	FNCONF	rparam,??,?
  3362                           	GLOBAL	___rparam_used
  3363                           	___rparam_used EQU 1
  3364  0000                     	GLOBAL	___param_bank
  3365                           	___param_bank EQU 0
  3366  0000                     GLOBAL	__Lparam, __Hparam
  3367                           GLOBAL	__Lrparam, __Hrparam
  3368                           __Lparam	EQU	__Lrparam
  3369  0000                     __Hparam	EQU	__Hrparam
  3370  0000                     	end


Data Sizes:
    Strings     17
    Constant    0
    Data        0
    BSS         0
    Persistent  0
    Stack       0

Auto Spaces:
    Space          Size  Autos    Used
    COMRAM           95     22      22
    BANK0           160      0       0
    BANK1           256      0       0
    BANK2           256      0       0
    BANK3           256      0       0
    BANK4           256      0       0
    BANK5           256      0       0
    BANK6           256      0       0
    BANK7           256      0       0
    BANK8           256      0       0
    BANK9           256      0       0
    BANK10          256      0       0
    BANK11          256      0       0
    BANK12          256      0       0
    BANK13          256      0       0
    BANK14          256      0       0
    BANK15           56      0       0

Pointer List with Targets:

    None.

Critical Paths under _main in COMRAM

    _main->_UARTWriteByteDec
    _UARTWriteByteDec->___awdiv
    ___awdiv->___awmod

Critical Paths under _main in BANK0

    None.

Critical Paths under _main in BANK1

    None.

Critical Paths under _main in BANK2

    None.

Critical Paths under _main in BANK3

    None.

Critical Paths under _main in BANK4

    None.

Critical Paths under _main in BANK5

    None.

Critical Paths under _main in BANK6

    None.

Critical Paths under _main in BANK7

    None.

Critical Paths under _main in BANK8

    None.

Critical Paths under _main in BANK9

    None.

Critical Paths under _main in BANK10

    None.

Critical Paths under _main in BANK11

    None.

Critical Paths under _main in BANK12

    None.

Critical Paths under _main in BANK13

    None.

Critical Paths under _main in BANK14

    None.

Critical Paths under _main in BANK15

    None.

Call Graph Tables:

 ---------------------------------------------------------------------------------
 (Depth) Function   	        Calls       Base Space   Used Autos Params    Refs
 ---------------------------------------------------------------------------------
 (0) _main                                                 7     2      5    1678
                                             15 COMRAM     7     2      5
                           _UARTInit
                   _UARTWriteByteDec
                        _readVoltage
                       _toPercentage
 ---------------------------------------------------------------------------------
 (1) _toPercentage                                         1     1      0     165
                                              0 COMRAM     1     1      0
 ---------------------------------------------------------------------------------
 (1) _readVoltage                                          0     0      0       0
 ---------------------------------------------------------------------------------
 (1) _UARTWriteByteDec                                     1     1      0    1437
                                             14 COMRAM     1     1      0
                      _UARTWriteByte
                            ___awdiv
                            ___awmod
 ---------------------------------------------------------------------------------
 (2) ___awmod                                              6     2      4     600
                                              0 COMRAM     6     2      4
 ---------------------------------------------------------------------------------
 (2) ___awdiv                                              8     4      4     756
                                              6 COMRAM     8     4      4
                            ___awmod (ARG)
 ---------------------------------------------------------------------------------
 (2) _UARTWriteByte                                        1     1      0      15
                                              0 COMRAM     1     1      0
 ---------------------------------------------------------------------------------
 (1) _UARTInit                                             2     0      2      76
                                              0 COMRAM     2     0      2
 ---------------------------------------------------------------------------------
 Estimated maximum stack depth 2
 ---------------------------------------------------------------------------------

 Call Graph Graphs:

 _main (ROOT)
   _UARTInit
   _UARTWriteByteDec
     _UARTWriteByte
     ___awdiv
       ___awmod (ARG)
     ___awmod
   _readVoltage
   _toPercentage

 Address spaces:
Name               Size   Autos  Total    Cost      Usage
BITCOMRAM           5F      0       0       0        0.0%
EEDATA             400      0       0       0        0.0%
NULL                 0      0       0       0        0.0%
CODE                 0      0       0       0        0.0%
COMRAM              5F     16      16       1       23.2%
STACK                0      0       0       2        0.0%
DATA                 0      0       0       3        0.0%
BITBANK0            A0      0       0       4        0.0%
BANK0               A0      0       0       5        0.0%
BITBANK1           100      0       0       6        0.0%
BANK1              100      0       0       7        0.0%
BITBANK2           100      0       0       8        0.0%
BANK2              100      0       0       9        0.0%
BITBANK3           100      0       0      10        0.0%
BANK3              100      0       0      11        0.0%
ABS                  0      0       0      12        0.0%
BITBANK4           100      0       0      13        0.0%
BANK4              100      0       0      14        0.0%
BITBANK5           100      0       0      15        0.0%
BANK5              100      0       0      16        0.0%
BITBANK6           100      0       0      17        0.0%
BANK6              100      0       0      18        0.0%
BITBANK7           100      0       0      19        0.0%
BANK7              100      0       0      20        0.0%
BITBANK8           100      0       0      21        0.0%
BANK8              100      0       0      22        0.0%
BITBANK9           100      0       0      23        0.0%
BANK9              100      0       0      24        0.0%
BITBANK10          100      0       0      25        0.0%
BANK10             100      0       0      26        0.0%
BITBANK11          100      0       0      27        0.0%
BANK11             100      0       0      28        0.0%
BITBANK12          100      0       0      29        0.0%
BANK12             100      0       0      30        0.0%
BITBANK13          100      0       0      31        0.0%
BANK13             100      0       0      32        0.0%
BITBANK14          100      0       0      33        0.0%
BANK14             100      0       0      34        0.0%
BITBANK15           38      0       0      35        0.0%
BANK15              38      0       0      36        0.0%
BIGRAM             F37      0       0      37        0.0%
BITSFR_1             0      0       0     200        0.0%
SFR_1                0      0       0     200        0.0%
BITSFR               0      0       0     200        0.0%
SFR                  0      0       0     200        0.0%


Microchip Technology PIC18 Macro Assembler V2.00 build -1524193055 
Symbol Table                                                                                   Fri Jun  7 13:09:12 2019

                       l15 1358                         l16 137E                         l17 1382  
                       l18 1382                         l51 13F4                         l54 13FC  
                       l55 13FC                         l56 140E                         l57 1412  
                       l78 1346                         l97 13A6                         l98 13A6  
                       l99 13B8                         u10 140A                         u11 1406  
             ___awdiv@sign 000C           _UARTWriteByteDec 12D6               __CFG_CP0$OFF 000000  
             __CFG_CP1$OFF 000000               __CFG_CP2$OFF 000000               __CFG_CP3$OFF 000000  
                      l100 13BE                        l110 1110                        l103 1030  
                      l104 1110                        l105 105A                        l106 1084  
                      l107 10AE                        l108 10D8                        l109 1106  
                      l340 1196                        l341 11C0                        l342 11D0  
                      l334 1134                        l350 1260                        l343 11F0  
                      l335 1152                        l351 1254                        l344 11FC  
                      l336 11D4                        l352 1272                        l337 1180  
                      l353 1276                        l338 1174                        l354 1298  
                      l339 1192                        l355 12A8                        l347 1220  
                      l356 12C8                        l348 123A                        l357 12D4  
                      l349 12AC                        l910 13B8                        l902 1386  
                      l912 13BE                        l904 138C                        l920 1030  
                      l906 1398                        l930 106A                        l922 1040  
                      l914 1016                        l908 13A0                        l940 10A4  
                      l932 107A                        l924 1050                        l916 1026  
                      l950 10D4                        l942 10AA                        l934 1080  
                      l926 1056                        l918 102C                        l960 1102  
                      l952 10D8                        l944 10AE                        l936 1084  
                      l928 105A                        l786 13F8                        l954 10E8  
                      l962 1106                        l946 10BE                        l938 1094  
                      l788 140E                        l964 110C                        l956 10F8  
                      l948 10CE                        l958 10FE               __CFG_CPB$OFF 000000  
                      u200 1094                        u201 1090                        u210 10A4  
                      u211 10A0                        u300 116C                        u140 13B4  
                      u220 10BE                        u301 1168                        u141 13B0  
                      u221 10BA                        u310 118E                        u230 10CE  
                      u150 1026                        u311 118A                        u231 10CA  
                      u151 1022                        u320 11B2                        u240 10E8  
                      u160 1040                        u321 11AE                        u241 10E4  
                      u161 103C                        u330 11E4                        u250 10F8  
                      u170 1050                        u331 11E0                        u251 10F4  
                      u171 104C                        u340 1210                        u180 106A  
                      u341 120C                        u181 1066                        u350 122E  
                      u190 107A                        u351 122A                        u191 1076  
                      u407 136E                        u280 1124                        u360 124C  
                      u281 1120                        u361 1248                        u417 139A  
                      u290 1142                        u370 126E               __CFG_CPD$OFF 000000  
                      u291 113E                        u371 126A                        u380 128C  
                      u381 1288                        u390 12BC                        u391 12B8  
             ___awmod@sign 0006                        wreg 000FE8                 _TXSTA1bits 000FAC  
             __CFG_LVP$OFF 000000                       l1010 1112                       l1100 13D6  
                     l1020 1142                       l1012 1116                       l1110 13E0  
                     l1102 13D8                       l1030 1174                       l1022 114A  
                     l1014 1124                       l1120 13F2                       l1112 13EA  
                     l1104 13DA                       l1040 11BA                       l1032 1180  
                     l1024 1152                       l1016 112C                       l1114 13EC  
                     l1106 13DC                       l1050 11F0                       l1042 11C0  
                     l1034 1196                       l1026 115A                       l1018 1134  
                     l1122 12D8                       l1130 1358                       l1116 13EE  
                     l1108 13DE                       l1052 11FC                       l1044 11C6  
                     l1036 119C                       l1028 116C                       l1060 1218  
                     l1124 133A                       l1132 1364                       l1118 13F0  
                     l1038 11B2                       l1046 11D4                       l1070 1254  
                     l1062 1220                       l1054 11FE                       l1126 1340  
                     l1048 11E4                       l1080 129E                       l1072 1260  
                     l1064 122E                       l1056 1202                       l1128 1348  
                     l1090 13C0                       l1074 1276                       l1082 12AC  
                     l1066 123A                       l1058 1210                       l1092 13C8  
                     l1084 12BC                       l1076 128C                       l1068 124C  
                     l1094 13D0                       l1086 12C8                       l1078 1298  
                     l1096 13D2                       l1088 12D4                       l1098 13D4  
                     STR_1 1001                       _PEIE 007F96                       _RCIE 007CED  
                     _RCIF 007CF5                       _main 1348              __CFG_BORV$190 000000  
                     start 0000              __CFG_IESO$OFF 000000               ___param_bank 000000  
             _BAUDCON1bits 000FB8                      ?_main 0010            __end_of___awdiv 11FE  
          __end_of___awmod 12D6            ___awdiv@divisor 0009            ___awdiv@counter 000B  
             ?_readVoltage 0001              __CFG_WRT0$OFF 000000              __CFG_WRT1$OFF 000000  
            __CFG_WRT2$OFF 000000              __CFG_WRT3$OFF 000000             __CFG_EBTR0$OFF 000000  
           __CFG_FCMEN$OFF 000000             __CFG_EBTR1$OFF 000000             __CFG_EBTR2$OFF 000000  
           __CFG_EBTR3$OFF 000000           __end_of_UARTInit 13F6              __CFG_WRTB$OFF 000000  
            __CFG_WRTC$OFF 000000              __CFG_WRTD$OFF 000000             __CFG_EBTRB$OFF 000000  
     UARTWriteByteDec@data 000F         __CFG_MCLRE$EXTMCLR 000000                      status 000FD8  
           __CFG_HFOFST$ON 000000            __initialization 1414               __end_of_main 1386  
                   ??_main 0015              __activetblptr 000001                     _ADCON0 000FC2  
                   _ADCON1 000FC1                     _ADCON2 000FC0                     _ADRESH 000FC4  
         ___awdiv@dividend 0007             __CFG_WDTEN$OFF 000000                     _RCREG1 000FAE  
                   _RCSTA1 000FAB                     _SPBRG1 000FAF                     _TXREG1 000FAD  
                   _TXSTA1 000FAC             __CFG_XINST$OFF 000000                  ??___awdiv 000B  
           __CFG_STVREN$ON 000000                  ??___awmod 0005           ___awdiv@quotient 000D  
          ___awmod@divisor 0003            ___awmod@counter 0005               __mediumconst 0000  
                   tblptrh 000FF7                     tblptru 000FF8                 __accesstop 0060  
  __end_of__initialization 1414   __end_of_UARTWriteByteDec 1348            __CFG_PBADEN$OFF 000000  
            ___rparam_used 000001             __pcstackCOMRAM 0001                  ?_UARTInit 0001  
    __end_of_UARTWriteByte 1414       __size_of_readVoltage 003A            __CFG_PLLCFG$OFF 000000  
            ?_toPercentage 0001         __CFG_CCP2MX$PORTC1 000000                 ??_UARTInit 0003  
       __CFG_CCP3MX$PORTB5 000000                    _SPBRGH1 000FB0          UARTWriteByte@data 0001  
          __CFG_PWRTEN$OFF 000000             ??_toPercentage 0001                    __Hparam 0000  
                  __Lparam 0000                    ___awdiv 1112                    ___awmod 11FE  
             __psmallconst 1000                    __pcinit 1414                    __ramtop 1000  
                  __ptext0 1348                    __ptext1 1014                    __ptext2 1386  
                  __ptext3 12D6                    __ptext4 11FE                    __ptext5 1112  
                  __ptext6 13F6                    __ptext7 13C0           ___awmod@dividend 0001  
     end_of_initialization 1414           __CFG_FOSC$INTIO7 000000                  _TRISAbits 000F92  
                _TRISCbits 000F94          toPercentage@value 0001          ?_UARTWriteByteDec 0001  
       ??_UARTWriteByteDec 000F          __size_of_UARTInit 0036        start_initialization 1414  
     __end_of_toPercentage 1112              ??_readVoltage 0001     __size_of_UARTWriteByte 001E  
                 ?___awdiv 0007                   ?___awmod 0001           __CFG_PRICLKEN$ON 000000  
              __smallconst 1000        __end_of_readVoltage 13C0                   _PIE1bits 000F9D  
         __CFG_WDTPS$32768 000000                   _UARTInit 13C0      __size_of_toPercentage 00FE  
            _UARTWriteByte 13F6                 _ADCON0bits 000FC2                   __Hrparam 0000  
             _toPercentage 1014                   __Lrparam 0000               __Lsmallconst 1000  
       __CFG_BOREN$SBORDIS 000000          __CFG_P2BMX$PORTB5 000000           __size_of___awdiv 00EC  
         __size_of___awmod 00D8             ?_UARTWriteByte 0001  __size_of_UARTWriteByteDec 0072  
               _ANSELAbits 000F38                 _ANSELCbits 000F3A                _readVoltage 1386  
            __size_of_main 003E                   main@argc 0010                   main@argv 0012  
               _RCSTA1bits 000FAB            ??_UARTWriteByte 0001          __CFG_T3CMX$PORTC0 000000  
         UARTInit@baudRate 0001  
